(dp1
S'123925'
p2
S'1386-1469'
p3
sS'897962'
p4
S'805-1600'
p5
sS'1980123'
p6
S'1372-1041'
p7
sS'1634439'
p8
S'1528-1661'
p9
sS'49428'
p10
S'1610-1160'
p11
sS'295262'
p12
S'2274-1284'
p13
sS'35624'
p14
S'472-1013'
p15
sS'36668'
p16
S'1065-1645'
p17
sS'115950'
p18
S'2345-1288'
p19
sS'1238843'
p20
S'1148-1708'
p21
sS'1297561'
p22
S'1623-824'
p23
sS'24714'
p24
S'598-1370'
p25
sS'7519'
p26
S'405-1016'
p27
sS'2910'
p28
S'1341-1754'
p29
sS'199618'
p30
S'1825-1669'
p31
sS'227937'
p32
S'1091-995'
p33
sS'295562'
p34
S'1518-1778'
p35
sS'26934'
p36
S'717-953'
p37
sS'207150'
p38
S'1579-1403'
p39
sS'86406'
p40
S'1535-1693'
p41
sS'382210'
p42
S'2116-1543'
p43
sS'57934'
p44
S'1917-1333'
p45
sS'485051'
p46
S'1705-772'
p47
sS'337742'
p48
S'1636-771'
p49
sS'268102'
p50
S'1612-1102'
p51
sS'257337'
p52
S'1446-1647'
p53
sS'65652'
p54
S'612-1275'
p55
sS'120059'
p56
S'1534-1608'
p57
sS'788743'
p58
S'1916-888'
p59
sS'109473'
p60
S'2202-1881'
p61
sS'67256'
p62
S'1664-980'
p63
sS'3774'
p64
S'1443-1647'
p65
sS'130094'
p66
S'1548-872'
p67
sS'128581'
p68
S'1785-1322'
p69
sS'448638'
p70
S'1785-1308'
p71
sS'60139'
p72
S'1230-1622'
p73
sS'159744'
p74
S'1156-1729'
p75
sS'26724'
p76
S'1793-780'
p77
sS'1482686'
p78
S'1609-1193'
p79
sS'316746'
p80
S'1155-1729'
p81
sS'341627'
p82
S'1786-1291'
p83
sS'167230'
p84
S'704-1518'
p85
sS'16052'
p86
S'2301-1731'
p87
sS'31674'
p88
S'612-1285'
p89
sS'81333'
p90
S'1656-1478'
p91
sS'653663'
p92
S'1610-1265'
p93
sS'174109'
p94
S'1583-1895'
p95
sS'63656'
p96
S'2820-1796'
p97
sS'149410'
p98
S'2002-2396'
p99
sS'100010'
p100
S'1585-1386'
p101
sS'40330'
p102
S'1486-1531'
p103
sS'1938480'
p104
S'1010-993'
p105
sS'1526071'
p106
S'1617-883'
p107
sS'222589'
p108
S'1776-1932'
p109
sS'298392'
p110
S'1508-1446'
p111
sS'143316'
p112
S'2207-1734'
p113
sS'53733'
p114
S'1132-1790'
p115
sS'17039'
p116
S'1787-1239'
p117
sS'1570936'
p118
S'2121-1278'
p119
sS'39929'
p120
S'1157-1642'
p121
sS'1949595'
p122
S'1709-772'
p123
sS'22903'
p124
S'1521-1053'
p125
sS'47794'
p126
S'1579-1404'
p127
sS'526040'
p128
S'1991-996'
p129
sS'86148'
p130
S'1612-1067'
p131
sS'125582'
p132
S'2245-1282'
p133
sS'141128'
p134
S'602-1341'
p135
sS'239628'
p136
S'2116-1543'
p137
sS'511930'
p138
S'1794-705'
p139
sS'455522'
p140
S'1612-1073'
p141
sS'144058'
p142
S'459-1352'
p143
sS'143414'
p144
S'733-1077'
p145
sS'325972'
p146
S'1608-1225'
p147
sS'126835'
p148
S'1791-1000'
p149
sS'1356428'
p150
S'1345-1577'
p151
sS'135968'
p152
S'1341-1580'
p153
sS'1954930'
p154
S'1775-1501'
p155
sS'574963'
p156
S'1793-786'
p157
sS'354786'
p158
S'1400-1515'
p159
sS'5136'
p160
S'837-1001'
p161
sS'299236'
p162
S'1735-1266'
p163
sS'121065'
p164
S'1552-1650'
p165
sS'106039'
p166
S'1645-786'
p167
sS'376793'
p168
S'1872-1514'
p169
sS'44762'
p170
S'1611-1131'
p171
sS'501564'
p172
S'1652-1553'
p173
sS'729293'
p174
S'1929-772'
p175
sS'103618'
p176
S'1516-1053'
p177
sS'163665'
p178
S'732-1540'
p179
sS'291142'
p180
S'602-1344'
p181
sS'358947'
p182
S'1160-1645'
p183
sS'65607'
p184
S'1262-1647'
p185
sS'248790'
p186
S'1682-965'
p187
sS'238898'
p188
S'1793-824'
p189
sS'26321'
p190
S'1794-842'
p191
sS'359067'
p192
S'1333-1754'
p193
sS'5229'
p194
S'1186-1936'
p195
sS'265707'
p196
S'606-1429'
p197
sS'1968617'
p198
S'1790-976'
p199
sS'196288'
p200
S'1681-772'
p201
sS'248226'
p202
S'1524-1648'
p203
sS'1974848'
p204
S'321-1011'
p205
sS'215516'
p206
S'2270-1334'
p207
sS'15143'
p208
S'1385-1744'
p209
sS'1442163'
p210
S'1528-1659'
p211
sS'264179'
p212
S'2207-1756'
p213
sS'39522'
p214
S'3090-1848'
p215
sS'958215'
p216
S'1609-1188'
p217
sS'779796'
p218
S'1569-1437'
p219
sS'222259'
p220
S'1612-1058'
p221
sS'305975'
p222
S'942-995'
p223
sS'1017951'
p224
S'1793-814'
p225
sS'1312933'
p226
S'1584-1353'
p227
sS'189858'
p228
S'2271-859'
p229
sS'270934'
p230
S'1542-1527'
p231
sS'14395'
p232
S'1201-1624'
p233
sS'176840'
p234
S'1443-1868'
p235
sS'818086'
p236
S'1744-1367'
p237
sS'652192'
p238
S'1467-1052'
p239
sS'261307'
p240
S'1329-1753'
p241
sS'1935888'
p242
S'1655-986'
p243
sS'34012'
p244
S'1704-772'
p245
sS'1412122'
p246
S'1917-1338'
p247
sS'832291'
p248
S'1229-1612'
p249
sS'481093'
p250
S'1525-1693'
p251
sS'1094305'
p252
S'1620-698'
p253
sS'138644'
p254
S'1611-1265'
p255
sS'330593'
p256
S'1916-1466'
p257
sS'209922'
p258
S'1653-360'
p259
sS'237857'
p260
S'1339-1581'
p261
sS'33114'
p262
S'363-1182'
p263
sS'126289'
p264
S'1759-1661'
p265
sS'1959759'
p266
S'1552-1489'
p267
sS'16683'
p268
S'1794-844'
p269
sS'80788'
p270
S'715-945'
p271
sS'153024'
p272
S'1135-1777'
p273
sS'13832'
p274
S'2207-1744'
p275
sS'77575'
p276
S'1632-1382'
p277
sS'727818'
p278
S'1687-772'
p279
sS'1177880'
p280
S'1153-1644'
p281
sS'271871'
p282
S'2007-1531'
p283
sS'107097'
p284
S'1614-1016'
p285
sS'196302'
p286
S'2001-880'
p287
sS'70290'
p288
S'1808-985'
p289
sS'204509'
p290
S'2366-1740'
p291
sS'1436199'
p292
S'1529-1648'
p293
sS'92491'
p294
S'1794-896'
p295
sS'14390'
p296
S'1881-829'
p297
sS'73729'
p298
S'666-1492'
p299
sS'784933'
p300
S'3249-1880'
p301
sS'6329'
p302
S'2305-1298'
p303
sS'1179102'
p304
S'1267-1647'
p305
sS'18484'
p306
S'519-1367'
p307
sS'1663175'
p308
S'1847-1517'
p309
sS'73473'
p310
S'1790-905'
p311
sS'304707'
p312
S'269-1036'
p313
sS'158019'
p314
S'2090-883'
p315
sS'191222'
p316
S'1406-1581'
p317
sS'31990'
p318
S'1612-1052'
p319
sS'406389'
p320
S'1642-1265'
p321
sS'594788'
p322
S'1585-1385'
p323
sS'363057'
p324
S'1504-1936'
p325
sS'33433'
p326
S'1879-843'
p327
sS'45336'
p328
S'1610-1061'
p329
sS'195344'
p330
S'1015-993'
p331
sS'218977'
p332
S'1804-772'
p333
sS'222041'
p334
S'1914-1549'
p335
sS'308360'
p336
S'438-1347'
p337
sS'75439'
p338
S'1402-1502'
p339
sS'433598'
p340
S'1794-676'
p341
sS'163439'
p342
S'1774-1611'
p343
sS'527173'
p344
S'1588-1375'
p345
sS'706'
p346
S'1646-771'
p347
sS'77024'
p348
S'1643-1490'
p349
sS'701211'
p350
S'1836-769'
p351
sS'20293'
p352
S'1755-986'
p353
sS'57927'
p354
S'1999-1273'
p355
sS'24020'
p356
S'2203-1866'
p357
sS'160582'
p358
S'1525-1517'
p359
sS'227356'
p360
S'1666-299'
p361
sS'101781'
p362
S'2227-1199'
p363
sS'1426719'
p364
S'573-1006'
p365
sS'1134'
p366
S'1350-1573'
p367
sS'1970284'
p368
S'1262-1024'
p369
sS'24205'
p370
S'2899-1809'
p371
sS'32200'
p372
S'1970-995'
p373
sS'411929'
p374
S'1677-1364'
p375
sS'251645'
p376
S'1820-1268'
p377
sS'972663'
p378
S'801-1599'
p379
sS'576155'
p380
S'1321-1650'
p381
sS'504580'
p382
S'2205-1803'
p383
sS'156467'
p384
S'330-1011'
p385
sS'411369'
p386
S'2214-1719'
p387
sS'106638'
p388
S'1618-671'
p389
sS'179492'
p390
S'1745-1661'
p391
sS'296634'
p392
S'1779-1267'
p393
sS'301451'
p394
S'1135-1778'
p395
sS'730191'
p396
S'1427-1645'
p397
sS'1067393'
p398
S'1680-967'
p399
sS'105337'
p400
S'538-1008'
p401
sS'334930'
p402
S'1416-1492'
p403
sS'345480'
p404
S'1611-1024'
p405
sS'442197'
p406
S'1765-1367'
p407
sS'224742'
p408
S'1791-953'
p409
sS'112902'
p410
S'2203-1853'
p411
sS'222907'
p412
S'1835-900'
p413
sS'127696'
p414
S'1832-1508'
p415
sS'160364'
p416
S'2301-1331'
p417
sS'145703'
p418
S'1339-1651'
p419
sS'125559'
p420
S'1302-1032'
p421
sS'26526'
p422
S'2660-1779'
p423
sS'165391'
p424
S'2120-1403'
p425
sS'28176'
p426
S'1512-1053'
p427
sS'278573'
p428
S'528-1009'
p429
sS'164401'
p430
S'1901-1678'
p431
sS'90089'
p432
S'1149-1706'
p433
sS'83951'
p434
S'1406-1045'
p435
sS'72572'
p436
S'1407-1483'
p437
sS'228568'
p438
S'304-1011'
p439
sS'317237'
p440
S'440-1091'
p441
sS'204474'
p442
S'1261-1647'
p443
sS'428298'
p444
S'1552-1783'
p445
sS'1453603'
p446
S'1136-999'
p447
sS'719789'
p448
S'1487-1054'
p449
sS'738505'
p450
S'1723-779'
p451
sS'1350145'
p452
S'2043-880'
p453
sS'181694'
p454
S'1872-944'
p455
sS'309811'
p456
S'1556-1052'
p457
sS'1283058'
p458
S'512-1010'
p459
sS'256325'
p460
S'1640-427'
p461
sS'293819'
p462
S'2207-1746'
p463
sS'1936002'
p464
S'1323-1650'
p465
sS'82704'
p466
S'1020-993'
p467
sS'26596'
p468
S'2207-1736'
p469
sS'30401'
p470
S'2100-884'
p471
sS'20122'
p472
S'1645-995'
p473
sS'76821'
p474
S'1644-409'
p475
sS'1884815'
p476
S'1386-1043'
p477
sS'132930'
p478
S'692-1508'
p479
sS'315165'
p480
S'424-1342'
p481
sS'1980773'
p482
S'1401-1044'
p483
sS'190827'
p484
S'1696-1266'
p485
sS'181441'
p486
S'1914-1558'
p487
sS'260546'
p488
S'1910-1270'
p489
sS'41773'
p490
S'439-1025'
p491
sS'172993'
p492
S'1794-1367'
p493
sS'16754'
p494
S'1784-1327'
p495
sS'77617'
p496
S'1636-779'
p497
sS'806587'
p498
S'1149-1681'
p499
sS'75'
p500
S'2051-1699'
p501
sS'850328'
p502
S'1430-1048'
p503
sS'28034'
p504
S'1567-1052'
p505
sS'114716'
p506
S'1149-1693'
p507
sS'87054'
p508
S'1540-1649'
p509
sS'240996'
p510
S'813-1003'
p511
sS'1564667'
p512
S'628-1004'
p513
sS'1405040'
p514
S'1786-1271'
p515
sS'64571'
p516
S'1794-875'
p517
sS'12486'
p518
S'1793-772'
p519
sS'562784'
p520
S'1148-1711'
p521
sS'309071'
p522
S'1843-769'
p523
sS'15518'
p524
S'1584-1493'
p525
sS'1981037'
p526
S'1609-1204'
p527
sS'32131'
p528
S'1920-1383'
p529
sS'11667'
p530
S'596-1384'
p531
sS'1958346'
p532
S'1794-884'
p533
sS'1054215'
p534
S'1376-1819'
p535
sS'45430'
p536
S'1617-811'
p537
sS'216476'
p538
S'1786-1267'
p539
sS'8650'
p540
S'734-1557'
p541
sS'174694'
p542
S'1785-1297'
p543
sS'315940'
p544
S'1249-1742'
p545
sS'66019'
p546
S'297-1011'
p547
sS'50886'
p548
S'1350-1570'
p549
sS'468365'
p550
S'505-1275'
p551
sS'999'
p552
S'2144-2000'
p553
sS'240221'
p554
S'1412-1763'
p555
sS'639658'
p556
S'1166-1731'
p557
sS'1995728'
p558
S'978-994'
p559
sS'221099'
p560
S'1658-984'
p561
sS'254188'
p562
S'1625-754'
p563
sS'108212'
p564
S'1596-1330'
p565
sS'469174'
p566
S'1387-1615'
p567
sS'85994'
p568
S'611-1447'
p569
sS'358441'
p570
S'1290-1030'
p571
sS'293713'
p572
S'2114-773'
p573
sS'367108'
p574
S'2451-892'
p575
sS'126771'
p576
S'711-1523'
p577
sS'10753'
p578
S'487-1359'
p579
sS'38203'
p580
S'1612-1093'
p581
sS'112909'
p582
S'537-1275'
p583
sS'35350'
p584
S'1130-999'
p585
sS'55735'
p586
S'1384-1735'
p587
sS'1936049'
p588
S'2368-1740'
p589
sS'1611542'
p590
S'1150-1645'
p591
sS'1946001'
p592
S'1716-772'
p593
sS'107225'
p594
S'2037-1697'
p595
sS'307753'
p596
S'1466-1649'
p597
sS'64206'
p598
S'1440-1588'
p599
sS'76989'
p600
S'1271-1648'
p601
sS'36990'
p602
S'2031-1275'
p603
sS'8448'
p604
S'1230-1629'
p605
sS'435026'
p606
S'1820-1268'
p607
sS'3471'
p608
S'1655-1265'
p609
sS'1073960'
p610
S'1597-1322'
p611
sS'37434'
p612
S'2343-1288'
p613
sS'251378'
p614
S'1617-830'
p615
sS'20590'
p616
S'1618-670'
p617
sS'84183'
p618
S'1256-1022'
p619
sS'4490'
p620
S'1439-1498'
p621
sS'299998'
p622
S'1315-993'
p623
sS'808255'
p624
S'2293-1821'
p625
sS'319566'
p626
S'1656-1491'
p627
sS'1392446'
p628
S'339-1124'
p629
sS'406255'
p630
S'1669-289'
p631
sS'81698'
p632
S'1643-1661'
p633
sS'334743'
p634
S'1569-1052'
p635
sS'42533'
p636
S'1133-1787'
p637
sS'284500'
p638
S'1852-452'
p639
sS'11518'
p640
S'440-1199'
p641
sS'156270'
p642
S'1710-1706'
p643
sS'161220'
p644
S'1577-1676'
p645
sS'146350'
p646
S'1295-1595'
p647
sS'910403'
p648
S'1656-1366'
p649
sS'897948'
p650
S'1506-1649'
p651
sS'982803'
p652
S'2289-1285'
p653
sS'34292'
p654
S'2017-1979'
p655
sS'69293'
p656
S'1114-1645'
p657
sS'40267'
p658
S'698-1004'
p659
sS'1608585'
p660
S'1368-1499'
p661
sS'646626'
p662
S'2012-1090'
p663
sS'222232'
p664
S'1765-1856'
p665
sS'214340'
p666
S'2174-1550'
p667
sS'259068'
p668
S'1619-603'
p669
sS'331392'
p670
S'2356-1845'
p671
sS'45964'
p672
S'1262-1744'
p673
sS'101'
p674
S'1764-1545'
p675
sS'64585'
p676
S'3122-1854'
p677
sS'1968552'
p678
S'1884-811'
p679
sS'98982'
p680
S'1864-1014'
p681
sS'205146'
p682
S'436-1020'
p683
sS'193555'
p684
S'1652-989'
p685
sS'1139290'
p686
S'2031-1395'
p687
sS'230966'
p688
S'1775-1649'
p689
sS'507761'
p690
S'1191-1009'
p691
sS'153504'
p692
S'1628-1265'
p693
sS'152999'
p694
S'1552-1490'
p695
sS'203661'
p696
S'505-1363'
p697
sS'8061'
p698
S'1602-1290'
p699
sS'194983'
p700
S'1794-908'
p701
sS'582439'
p702
S'1383-1577'
p703
sS'95081'
p704
S'1483-1773'
p705
sS'79240'
p706
S'1793-1075'
p707
sS'101457'
p708
S'1218-1915'
p709
sS'140826'
p710
S'860-1612'
p711
sS'1460883'
p712
S'823-1604'
p713
sS'126100'
p714
S'1794-888'
p715
sS'91946'
p716
S'661-1491'
p717
sS'404010'
p718
S'1150-1654'
p719
sS'13796'
p720
S'1476-1503'
p721
sS'111597'
p722
S'1617-801'
p723
sS'64324'
p724
S'1673-1242'
p725
sS'677164'
p726
S'573-1006'
p727
sS'168997'
p728
S'2017-879'
p729
sS'435269'
p730
S'2343-1288'
p731
sS'147919'
p732
S'1601-1381'
p733
sS'271816'
p734
S'1230-1620'
p735
sS'210883'
p736
S'2064-1700'
p737
sS'1715316'
p738
S'1481-624'
p739
sS'63729'
p740
S'1378-1803'
p741
sS'459195'
p742
S'1601-1294'
p743
sS'36559'
p744
S'1521-1778'
p745
sS'1967784'
p746
S'1612-1092'
p747
sS'111351'
p748
S'1200-1624'
p749
sS'321223'
p750
S'1374-1827'
p751
sS'113124'
p752
S'1643-1265'
p753
sS'6229'
p754
S'588-1380'
p755
sS'1967422'
p756
S'1353-1536'
p757
sS'35220'
p758
S'2832-1728'
p759
sS'897'
p760
S'1798-1062'
p761
sS'374124'
p762
S'1524-1053'
p763
sS'168207'
p764
S'1291-1030'
p765
sS'110039'
p766
S'1609-1191'
p767
sS'23989'
p768
S'1616-941'
p769
sS'480910'
p770
S'2913-1812'
p771
sS'1337641'
p772
S'1534-1609'
p773
sS'163125'
p774
S'1784-1338'
p775
sS'95194'
p776
S'1371-1485'
p777
sS'34952'
p778
S'836-1001'
p779
sS'271256'
p780
S'1412-1862'
p781
sS'7336'
p782
S'513-1356'
p783
sS'1962294'
p784
S'1543-1649'
p785
sS'37273'
p786
S'1471-1053'
p787
sS'90182'
p788
S'2231-1121'
p789
sS'1409813'
p790
S'1812-1369'
p791
sS'165965'
p792
S'1549-1053'
p793
sS'284071'
p794
S'1549-1053'
p795
sS'114665'
p796
S'2221-1336'
p797
sS'10212'
p798
S'1459-1501'
p799
sS'191937'
p800
S'3048-1839'
p801
sS'107763'
p802
S'1552-1490'
p803
sS'508924'
p804
S'1382-1759'
p805
sS'92011'
p806
S'1475-1697'
p807
sS'231565'
p808
S'1613-1006'
p809
sS'205683'
p810
S'1567-1052'
p811
sS'115505'
p812
S'1474-1874'
p813
sS'62067'
p814
S'2156-1807'
p815
sS'62038'
p816
S'667-1492'
p817
sS'86484'
p818
S'1533-1053'
p819
sS'1936352'
p820
S'1660-1409'
p821
sS'129483'
p822
S'1872-885'
p823
sS'67945'
p824
S'2215-1539'
p825
sS'52129'
p826
S'1983-1690'
p827
sS'666562'
p828
S'427-1297'
p829
sS'15342'
p830
S'439-1021'
p831
sS'87751'
p832
S'1822-770'
p833
sS'636061'
p834
S'1376-1651'
p835
sS'763584'
p836
S'1594-1338'
p837
sS'5765'
p838
S'1819-1507'
p839
sS'760360'
p840
S'1604-1277'
p841
sS'18356'
p842
S'1606-1025'
p843
sS'129893'
p844
S'1337-1740'
p845
sS'300162'
p846
S'1604-1275'
p847
sS'59515'
p848
S'1628-1493'
p849
sS'167138'
p850
S'1644-620'
p851
sS'50803'
p852
S'2380-1130'
p853
sS'14440'
p854
S'1609-1197'
p855
sS'103472'
p856
S'545-1418'
p857
sS'415298'
p858
S'610-1180'
p859
sS'22656'
p860
S'1791-1154'
p861
sS'1990551'
p862
S'1849-897'
p863
sS'1517127'
p864
S'1456-1047'
p865
sS'61425'
p866
S'1979-1860'
p867
sS'270190'
p868
S'1144-1000'
p869
sS'1965732'
p870
S'1882-1636'
p871
sS'1035999'
p872
S'1354-1533'
p873
sS'24684'
p874
S'1612-1056'
p875
sS'823946'
p876
S'1765-1832'
p877
sS'251347'
p878
S'1690-1613'
p879
sS'90717'
p880
S'1203-1645'
p881
sS'193832'
p882
S'1655-1486'
p883
sS'1686081'
p884
S'1191-1734'
p885
sS'155745'
p886
S'610-1296'
p887
sS'179722'
p888
S'1550-1497'
p889
sS'33368'
p890
S'1149-1675'
p891
sS'321281'
p892
S'1656-1265'
p893
sS'217929'
p894
S'1596-1560'
p895
sS'9036'
p896
S'1923-1383'
p897
sS'20405'
p898
S'1619-655'
p899
sS'6162'
p900
S'1518-1783'
p901
sS'10257'
p902
S'2208-1720'
p903
sS'173065'
p904
S'1516-1811'
p905
sS'1635'
p906
S'412-1338'
p907
sS'78457'
p908
S'599-1360'
p909
sS'43336'
p910
S'1515-1819'
p911
sS'81113'
p912
S'1826-1538'
p913
sS'114424'
p914
S'1618-577'
p915
sS'78296'
p916
S'2122-791'
p917
sS'583507'
p918
S'2219-1412'
p919
sS'33841'
p920
S'1349-1038'
p921
sS'925293'
p922
S'1531-1693'
p923
sS'366342'
p924
S'2226-1233'
p925
sS'164080'
p926
S'1643-414'
p927
sS'174155'
p928
S'1295-1595'
p929
sS'725816'
p930
S'2037-1534'
p931
sS'794715'
p932
S'1498-896'
p933
sS'89905'
p934
S'1444-1768'
p935
sS'140623'
p936
S'1114-1799'
p937
sS'45489'
p938
S'1544-1514'
p939
sS'191010'
p940
S'1546-1506'
p941
sS'297989'
p942
S'1676-1265'
p943
sS'190544'
p944
S'2271-874'
p945
sS'420878'
p946
S'727-1586'
p947
sS'336307'
p948
S'1315-1650'
p949
sS'222924'
p950
S'1234-1823'
p951
sS'126299'
p952
S'1135-1645'
p953
sS'126297'
p954
S'1402-1045'
p955
sS'80799'
p956
S'1764-1890'
p957
sS'72113'
p958
S'1507-1594'
p959
sS'309120'
p960
S'2060-1497'
p961
sS'260796'
p962
S'1811-771'
p963
sS'67731'
p964
S'1872-946'
p965
sS'140444'
p966
S'1508-1053'
p967
sS'49331'
p968
S'1209-1620'
p969
sS'236293'
p970
S'1916-1379'
p971
sS'22344'
p972
S'1793-772'
p973
sS'293124'
p974
S'1525-1517'
p975
sS'294184'
p976
S'938-996'
p977
sS'100567'
p978
S'1719-937'
p979
sS'70176'
p980
S'1764-1662'
p981
sS'199278'
p982
S'2014-772'
p983
sS'138270'
p984
S'1882-823'
p985
sS'105264'
p986
S'1230-1639'
p987
s.