(dp1
S'123925'
p2
S'1382-1473'
p3
sS'897962'
p4
S'812-1601'
p5
sS'1980123'
p6
S'1362-1040'
p7
sS'1634439'
p8
S'1527-1669'
p9
sS'49428'
p10
S'1610-1171'
p11
sS'295262'
p12
S'2277-1284'
p13
sS'35624'
p14
S'455-1016'
p15
sS'36668'
p16
S'1059-1645'
p17
sS'115950'
p18
S'2338-1288'
p19
sS'1238843'
p20
S'1148-1711'
p21
sS'1297561'
p22
S'1623-823'
p23
sS'24714'
p24
S'599-1363'
p25
sS'7519'
p26
S'384-1013'
p27
sS'2910'
p28
S'1332-1753'
p29
sS'199618'
p30
S'1827-1669'
p31
sS'227937'
p32
S'1083-994'
p33
sS'295562'
p34
S'1518-1778'
p35
sS'26934'
p36
S'718-960'
p37
sS'207150'
p38
S'1573-1422'
p39
sS'86406'
p40
S'1545-1693'
p41
sS'382210'
p42
S'2121-1544'
p43
sS'57934'
p44
S'1917-1330'
p45
sS'485051'
p46
S'1697-772'
p47
sS'337742'
p48
S'1634-771'
p49
sS'268102'
p50
S'1612-1081'
p51
sS'257337'
p52
S'1455-1648'
p53
sS'65652'
p54
S'611-1264'
p55
sS'120059'
p56
S'1534-1611'
p57
sS'788743'
p58
S'1899-890'
p59
sS'67256'
p60
S'1656-986'
p61
sS'3774'
p62
S'1428-1645'
p63
sS'130094'
p64
S'1547-872'
p65
sS'128581'
p66
S'1785-1308'
p67
sS'448638'
p68
S'1785-1314'
p69
sS'60139'
p70
S'1230-1621'
p71
sS'159744'
p72
S'1154-1729'
p73
sS'26724'
p74
S'1793-778'
p75
sS'1482686'
p76
S'1610-1183'
p77
sS'341627'
p78
S'1786-1282'
p79
sS'167230'
p80
S'709-1521'
p81
sS'16052'
p82
S'2300-1731'
p83
sS'31674'
p84
S'611-1288'
p85
sS'81333'
p86
S'1656-1472'
p87
sS'653663'
p88
S'1605-1271'
p89
sS'174109'
p90
S'1589-1896'
p91
sS'63656'
p92
S'2805-1794'
p93
sS'149410'
p94
S'2002-2396'
p95
sS'100010'
p96
S'1581-1398'
p97
sS'40330'
p98
S'1484-1545'
p99
sS'1938480'
p100
S'997-994'
p101
sS'1526071'
p102
S'1617-882'
p103
sS'222589'
p104
S'1762-1930'
p105
sS'298392'
p106
S'1502-1446'
p107
sS'143316'
p108
S'2208-1715'
p109
sS'53733'
p110
S'1131-1796'
p111
sS'17039'
p112
S'1787-1250'
p113
sS'1570936'
p114
S'2132-1279'
p115
sS'39929'
p116
S'1171-1636'
p117
sS'1949595'
p118
S'1699-772'
p119
sS'22903'
p120
S'1525-1053'
p121
sS'47794'
p122
S'1579-1405'
p123
sS'526040'
p124
S'1979-995'
p125
sS'86148'
p126
S'1612-1059'
p127
sS'125582'
p128
S'2236-1282'
p129
sS'141128'
p130
S'602-1346'
p131
sS'239628'
p132
S'2108-1542'
p133
sS'511930'
p134
S'1794-703'
p135
sS'455522'
p136
S'1607-1060'
p137
sS'144058'
p138
S'458-1352'
p139
sS'143414'
p140
S'731-1059'
p141
sS'325972'
p142
S'1607-1232'
p143
sS'126835'
p144
S'1793-1011'
p145
sS'1356428'
p146
S'1349-1575'
p147
sS'135968'
p148
S'1346-1577'
p149
sS'1954930'
p150
S'1792-1503'
p151
sS'574963'
p152
S'1793-788'
p153
sS'354786'
p154
S'1400-1514'
p155
sS'5136'
p156
S'831-1001'
p157
sS'299236'
p158
S'1725-1266'
p159
sS'121065'
p160
S'1566-1650'
p161
sS'106039'
p162
S'1644-785'
p163
sS'376793'
p164
S'1877-1514'
p165
sS'44762'
p166
S'1611-1144'
p167
sS'501564'
p168
S'1652-1543'
p169
sS'218884'
p170
S'1629-619'
p171
sS'729293'
p172
S'1925-772'
p173
sS'103618'
p174
S'1517-1053'
p175
sS'163665'
p176
S'736-1549'
p177
sS'291142'
p178
S'602-1345'
p179
sS'358947'
p180
S'1160-1645'
p181
sS'65607'
p182
S'1249-1646'
p183
sS'248790'
p184
S'1674-972'
p185
sS'238898'
p186
S'1793-823'
p187
sS'26321'
p188
S'1794-829'
p189
sS'359067'
p190
S'1325-1753'
p191
sS'5229'
p192
S'1188-1936'
p193
sS'265707'
p194
S'604-1425'
p195
sS'1968617'
p196
S'1790-972'
p197
sS'196288'
p198
S'1675-772'
p199
sS'248226'
p200
S'1536-1649'
p201
sS'1974848'
p202
S'327-1011'
p203
sS'215516'
p204
S'2261-1334'
p205
sS'15143'
p206
S'1385-1745'
p207
sS'1442163'
p208
S'1529-1643'
p209
sS'264179'
p210
S'2206-1765'
p211
sS'39522'
p212
S'3066-1842'
p213
sS'958215'
p214
S'1610-1177'
p215
sS'779796'
p216
S'1571-1431'
p217
sS'222259'
p218
S'1612-1053'
p219
sS'305975'
p220
S'958-995'
p221
sS'1017951'
p222
S'1793-813'
p223
sS'1312933'
p224
S'1594-1343'
p225
sS'189858'
p226
S'2271-870'
p227
sS'270934'
p228
S'1541-1534'
p229
sS'14395'
p230
S'1189-1629'
p231
sS'176840'
p232
S'1462-1871'
p233
sS'818086'
p234
S'1732-1367'
p235
sS'652192'
p236
S'1452-1051'
p237
sS'261307'
p238
S'1323-1752'
p239
sS'1935888'
p240
S'1646-994'
p241
sS'34012'
p242
S'1705-772'
p243
sS'1412122'
p244
S'1917-1342'
p245
sS'832291'
p246
S'1229-1612'
p247
sS'481093'
p248
S'1525-1693'
p249
sS'1094305'
p250
S'1619-684'
p251
sS'138644'
p252
S'1620-1265'
p253
sS'330593'
p254
S'1916-1456'
p255
sS'209922'
p256
S'1654-349'
p257
sS'237857'
p258
S'1331-1585'
p259
sS'33114'
p260
S'367-1188'
p261
sS'126289'
p262
S'1772-1662'
p263
sS'1959759'
p264
S'1555-1480'
p265
sS'16683'
p266
S'1794-835'
p267
sS'80788'
p268
S'716-951'
p269
sS'153024'
p270
S'1133-1787'
p271
sS'13832'
p272
S'2207-1744'
p273
sS'77575'
p274
S'1636-1382'
p275
sS'727818'
p276
S'1680-772'
p277
sS'1177880'
p278
S'1152-1645'
p279
sS'271871'
p280
S'2020-1532'
p281
sS'107097'
p282
S'1614-1017'
p283
sS'196302'
p284
S'2012-879'
p285
sS'70290'
p286
S'1804-985'
p287
sS'204509'
p288
S'2350-1738'
p289
sS'1436199'
p290
S'1534-1607'
p291
sS'92491'
p292
S'1794-892'
p293
sS'14390'
p294
S'1880-840'
p295
sS'73729'
p296
S'676-1494'
p297
sS'784933'
p298
S'3266-1884'
p299
sS'6329'
p300
S'2304-1307'
p301
sS'1179102'
p302
S'1296-1649'
p303
sS'18484'
p304
S'517-1366'
p305
sS'1663175'
p306
S'1847-1520'
p307
sS'73473'
p308
S'1789-904'
p309
sS'304707'
p310
S'270-1034'
p311
sS'158019'
p312
S'2072-882'
p313
sS'191222'
p314
S'1399-1580'
p315
sS'31990'
p316
S'1612-1041'
p317
sS'406389'
p318
S'1626-1265'
p319
sS'594788'
p320
S'1579-1402'
p321
sS'363057'
p322
S'1504-1936'
p323
sS'33433'
p324
S'1880-839'
p325
sS'45336'
p326
S'1606-1060'
p327
sS'195344'
p328
S'1006-993'
p329
sS'218977'
p330
S'1804-772'
p331
sS'222041'
p332
S'1914-1537'
p333
sS'308360'
p334
S'441-1348'
p335
sS'75439'
p336
S'1400-1514'
p337
sS'433598'
p338
S'1794-677'
p339
sS'163439'
p340
S'1774-1612'
p341
sS'706'
p342
S'1643-771'
p343
sS'77024'
p344
S'1652-1487'
p345
sS'701211'
p346
S'1832-769'
p347
sS'20293'
p348
S'1751-986'
p349
sS'57927'
p350
S'2002-1273'
p351
sS'24020'
p352
S'2202-1874'
p353
sS'160582'
p354
S'1530-1517'
p355
sS'227356'
p356
S'1662-314'
p357
sS'101781'
p358
S'2227-1209'
p359
sS'1426719'
p360
S'570-1006'
p361
sS'1134'
p362
S'1351-1565'
p363
sS'1970284'
p364
S'1257-1023'
p365
sS'24205'
p366
S'2887-1807'
p367
sS'32200'
p368
S'1959-994'
p369
sS'411929'
p370
S'1680-1365'
p371
sS'251645'
p372
S'1799-1267'
p373
sS'972663'
p374
S'811-1601'
p375
sS'576155'
p376
S'1349-1652'
p377
sS'504580'
p378
S'2205-1802'
p379
sS'160629'
p380
S'713-933'
p381
sS'156467'
p382
S'329-1011'
p383
sS'411369'
p384
S'2221-1720'
p385
sS'106638'
p386
S'1618-668'
p387
sS'179492'
p388
S'1760-1662'
p389
sS'296634'
p390
S'1765-1267'
p391
sS'301451'
p392
S'1137-1769'
p393
sS'730191'
p394
S'1432-1646'
p395
sS'1067393'
p396
S'1674-972'
p397
sS'105337'
p398
S'557-1007'
p399
sS'334930'
p400
S'1415-1492'
p401
sS'345480'
p402
S'1615-1018'
p403
sS'442197'
p404
S'1779-1367'
p405
sS'224742'
p406
S'1791-949'
p407
sS'112902'
p408
S'2203-1852'
p409
sS'222907'
p410
S'1838-899'
p411
sS'127696'
p412
S'1824-1507'
p413
sS'160364'
p414
S'2302-1330'
p415
sS'145703'
p416
S'1347-1652'
p417
sS'125559'
p418
S'1323-1035'
p419
sS'26526'
p420
S'2644-1777'
p421
sS'165391'
p422
S'2108-1402'
p423
sS'28176'
p424
S'1526-1053'
p425
sS'278573'
p426
S'511-1010'
p427
sS'164401'
p428
S'1910-1679'
p429
sS'90089'
p430
S'1148-1707'
p431
sS'83951'
p432
S'1401-1045'
p433
sS'72572'
p434
S'1414-1469'
p435
sS'228568'
p436
S'311-1011'
p437
sS'317237'
p438
S'440-1102'
p439
sS'204474'
p440
S'1265-1647'
p441
sS'428298'
p442
S'1555-1784'
p443
sS'1453603'
p444
S'1123-998'
p445
sS'719789'
p446
S'1482-1054'
p447
sS'738505'
p448
S'1724-779'
p449
sS'1350145'
p450
S'2025-879'
p451
sS'181694'
p452
S'1870-956'
p453
sS'309811'
p454
S'1559-1052'
p455
sS'1283058'
p456
S'523-1009'
p457
sS'256325'
p458
S'1637-439'
p459
sS'293819'
p460
S'2207-1747'
p461
sS'1936002'
p462
S'1337-1651'
p463
sS'82704'
p464
S'1006-993'
p465
sS'26596'
p466
S'2207-1739'
p467
sS'30401'
p468
S'2107-884'
p469
sS'20122'
p470
S'1634-1003'
p471
sS'76821'
p472
S'1648-391'
p473
sS'1884815'
p474
S'1388-1043'
p475
sS'132930'
p476
S'689-1505'
p477
sS'315165'
p478
S'422-1342'
p479
sS'1980773'
p480
S'1397-1044'
p481
sS'190827'
p482
S'1697-1266'
p483
sS'181441'
p484
S'1914-1567'
p485
sS'260546'
p486
S'1898-1270'
p487
sS'41773'
p488
S'447-1018'
p489
sS'172993'
p490
S'1796-1368'
p491
sS'16754'
p492
S'1784-1336'
p493
sS'77617'
p494
S'1635-778'
p495
sS'806587'
p496
S'1149-1680'
p497
sS'75'
p498
S'2060-1700'
p499
sS'850328'
p500
S'1413-1046'
p501
sS'28034'
p502
S'1569-1052'
p503
sS'114716'
p504
S'1149-1693'
p505
sS'87054'
p506
S'1529-1648'
p507
sS'240996'
p508
S'826-1001'
p509
sS'1564667'
p510
S'616-1003'
p511
sS'955828'
p512
S'714-938'
p513
sS'1405040'
p514
S'1786-1280'
p515
sS'64571'
p516
S'1794-874'
p517
sS'12486'
p518
S'1793-772'
p519
sS'562784'
p520
S'1148-1709'
p521
sS'309071'
p522
S'1841-769'
p523
sS'15518'
p524
S'1582-1493'
p525
sS'1981037'
p526
S'1609-1212'
p527
sS'32131'
p528
S'1920-1383'
p529
sS'11667'
p530
S'596-1397'
p531
sS'1958346'
p532
S'1794-882'
p533
sS'1054215'
p534
S'1376-1819'
p535
sS'45430'
p536
S'1617-814'
p537
sS'216476'
p538
S'1786-1267'
p539
sS'8650'
p540
S'736-1546'
p541
sS'174694'
p542
S'1785-1303'
p543
sS'315940'
p544
S'1244-1742'
p545
sS'66019'
p546
S'310-1011'
p547
sS'50886'
p548
S'1342-1579'
p549
sS'468365'
p550
S'499-1275'
p551
sS'999'
p552
S'2125-1997'
p553
sS'240221'
p554
S'1412-1763'
p555
sS'639658'
p556
S'1159-1730'
p557
sS'1995728'
p558
S'980-994'
p559
sS'221099'
p560
S'1649-991'
p561
sS'254188'
p562
S'1625-756'
p563
sS'108212'
p564
S'1597-1320'
p565
sS'469174'
p566
S'1387-1618'
p567
sS'85994'
p568
S'609-1440'
p569
sS'358441'
p570
S'1276-1027'
p571
sS'293713'
p572
S'2117-773'
p573
sS'367108'
p574
S'2449-892'
p575
sS'126771'
p576
S'706-1519'
p577
sS'10753'
p578
S'479-1358'
p579
sS'38203'
p580
S'1612-1113'
p581
sS'112909'
p582
S'543-1275'
p583
sS'35350'
p584
S'1152-1001'
p585
sS'55735'
p586
S'1384-1736'
p587
sS'1936049'
p588
S'2390-1743'
p589
sS'1611542'
p590
S'1150-1645'
p591
sS'1946001'
p592
S'1713-772'
p593
sS'107225'
p594
S'2034-1696'
p595
sS'307753'
p596
S'1475-1649'
p597
sS'64206'
p598
S'1441-1588'
p599
sS'76989'
p600
S'1260-1647'
p601
sS'36990'
p602
S'2025-1275'
p603
sS'8448'
p604
S'1230-1628'
p605
sS'435026'
p606
S'1816-1268'
p607
sS'3471'
p608
S'1664-1265'
p609
sS'1073960'
p610
S'1600-1302'
p611
sS'37434'
p612
S'2337-1287'
p613
sS'251378'
p614
S'1617-845'
p615
sS'20590'
p616
S'1618-670'
p617
sS'84183'
p618
S'1245-1020'
p619
sS'4490'
p620
S'1453-1500'
p621
sS'299998'
p622
S'1315-995'
p623
sS'808255'
p624
S'2286-1821'
p625
sS'319566'
p626
S'1654-1506'
p627
sS'1392446'
p628
S'339-1118'
p629
sS'406255'
p630
S'1664-306'
p631
sS'81698'
p632
S'1638-1654'
p633
sS'334743'
p634
S'1554-1052'
p635
sS'42533'
p636
S'1135-1777'
p637
sS'284500'
p638
S'1850-457'
p639
sS'11518'
p640
S'440-1194'
p641
sS'156270'
p642
S'1725-1709'
p643
sS'161220'
p644
S'1577-1676'
p645
sS'146350'
p646
S'1304-1593'
p647
sS'910403'
p648
S'1653-1368'
p649
sS'897948'
p650
S'1498-1649'
p651
sS'982803'
p652
S'2275-1284'
p653
sS'34292'
p654
S'2009-1977'
p655
sS'69293'
p656
S'1106-1645'
p657
sS'40267'
p658
S'702-1005'
p659
sS'1608585'
p660
S'1377-1498'
p661
sS'646626'
p662
S'2011-1100'
p663
sS'222232'
p664
S'1765-1872'
p665
sS'214340'
p666
S'2174-1550'
p667
sS'259068'
p668
S'1619-605'
p669
sS'331392'
p670
S'2355-1850'
p671
sS'45964'
p672
S'1259-1743'
p673
sS'101'
p674
S'1757-1545'
p675
sS'64585'
p676
S'3136-1857'
p677
sS'1968552'
p678
S'1886-802'
p679
sS'98982'
p680
S'1864-1013'
p681
sS'205146'
p682
S'453-1017'
p683
sS'193555'
p684
S'1644-995'
p685
sS'1139290'
p686
S'2021-1395'
p687
sS'230966'
p688
S'1774-1640'
p689
sS'507761'
p690
S'1179-1006'
p691
sS'153504'
p692
S'1636-1265'
p693
sS'152999'
p694
S'1548-1502'
p695
sS'8061'
p696
S'1604-1278'
p697
sS'194983'
p698
S'1794-908'
p699
sS'582439'
p700
S'1388-1577'
p701
sS'95081'
p702
S'1496-1775'
p703
sS'79240'
p704
S'1793-1093'
p705
sS'8589'
p706
S'3494-1956'
p707
sS'101457'
p708
S'1216-1914'
p709
sS'140826'
p710
S'851-1610'
p711
sS'1460883'
p712
S'815-1602'
p713
sS'126100'
p714
S'1794-884'
p715
sS'91946'
p716
S'669-1492'
p717
sS'404010'
p718
S'1150-1649'
p719
sS'13796'
p720
S'1485-1504'
p721
sS'111597'
p722
S'1617-799'
p723
sS'64324'
p724
S'1672-1253'
p725
sS'677164'
p726
S'592-1004'
p727
sS'168997'
p728
S'2028-879'
p729
sS'435269'
p730
S'2371-1289'
p731
sS'147919'
p732
S'1608-1381'
p733
sS'271816'
p734
S'1230-1620'
p735
sS'210883'
p736
S'2079-1702'
p737
sS'1715316'
p738
S'1461-627'
p739
sS'63729'
p740
S'1377-1812'
p741
sS'459195'
p742
S'1603-1279'
p743
sS'36559'
p744
S'1521-1778'
p745
sS'1967784'
p746
S'1612-1078'
p747
sS'111351'
p748
S'1205-1622'
p749
sS'321223'
p750
S'1373-1839'
p751
sS'113124'
p752
S'1626-1265'
p753
sS'6229'
p754
S'585-1380'
p755
sS'1967422'
p756
S'1353-1535'
p757
sS'35220'
p758
S'2819-1726'
p759
sS'897'
p760
S'1801-1062'
p761
sS'374124'
p762
S'1513-1053'
p763
sS'168207'
p764
S'1306-1033'
p765
sS'110039'
p766
S'1609-1188'
p767
sS'23989'
p768
S'1616-940'
p769
sS'480910'
p770
S'2926-1814'
p771
sS'1337641'
p772
S'1534-1605'
p773
sS'163125'
p774
S'1784-1337'
p775
sS'95194'
p776
S'1384-1471'
p777
sS'34952'
p778
S'831-1001'
p779
sS'271256'
p780
S'1419-1863'
p781
sS'7336'
p782
S'516-1342'
p783
sS'1962294'
p784
S'1535-1649'
p785
sS'37273'
p786
S'1454-1051'
p787
sS'90182'
p788
S'2221-1120'
p789
sS'1409813'
p790
S'1810-1369'
p791
sS'165965'
p792
S'1560-1052'
p793
sS'284071'
p794
S'1554-1052'
p795
sS'114665'
p796
S'2221-1352'
p797
sS'10212'
p798
S'1463-1502'
p799
sS'191937'
p800
S'3062-1842'
p801
sS'213907'
p802
S'715-942'
p803
sS'107763'
p804
S'1551-1492'
p805
sS'508924'
p806
S'1396-1761'
p807
sS'92011'
p808
S'1488-1696'
p809
sS'231565'
p810
S'1613-1001'
p811
sS'205683'
p812
S'1574-1049'
p813
sS'115505'
p814
S'1475-1874'
p815
sS'62067'
p816
S'2152-1806'
p817
sS'62038'
p818
S'663-1491'
p819
sS'86484'
p820
S'1520-1053'
p821
sS'1936352'
p822
S'1657-1413'
p823
sS'129483'
p824
S'1872-887'
p825
sS'67945'
p826
S'2215-1532'
p827
sS'52129'
p828
S'1978-1689'
p829
sS'666562'
p830
S'430-1290'
p831
sS'15342'
p832
S'439-1020'
p833
sS'87751'
p834
S'1817-771'
p835
sS'636061'
p836
S'1373-1651'
p837
sS'763584'
p838
S'1592-1353'
p839
sS'5765'
p840
S'1810-1505'
p841
sS'760360'
p842
S'1604-1272'
p843
sS'18356'
p844
S'1612-1020'
p845
sS'129893'
p846
S'1338-1739'
p847
sS'300162'
p848
S'1603-1284'
p849
sS'59515'
p850
S'1621-1490'
p851
sS'167138'
p852
S'1642-620'
p853
sS'50803'
p854
S'2385-1130'
p855
sS'14440'
p856
S'1610-1187'
p857
sS'103472'
p858
S'534-1416'
p859
sS'415298'
p860
S'610-1172'
p861
sS'22656'
p862
S'1791-1165'
p863
sS'1990551'
p864
S'1843-898'
p865
sS'1517127'
p866
S'1458-1047'
p867
sS'61425'
p868
S'1978-1870'
p869
sS'270190'
p870
S'1130-999'
p871
sS'1965732'
p872
S'1886-1637'
p873
sS'1035999'
p874
S'1354-1525'
p875
sS'24684'
p876
S'1612-1057'
p877
sS'823946'
p878
S'1765-1824'
p879
sS'251347'
p880
S'1680-1611'
p881
sS'90717'
p882
S'1197-1645'
p883
sS'193832'
p884
S'1644-1489'
p885
sS'1686081'
p886
S'1189-1734'
p887
sS'155745'
p888
S'612-1280'
p889
sS'179722'
p890
S'1552-1488'
p891
sS'33368'
p892
S'1149-1686'
p893
sS'321281'
p894
S'1667-1265'
p895
sS'217929'
p896
S'1579-1559'
p897
sS'9036'
p898
S'1923-1383'
p899
sS'20405'
p900
S'1619-659'
p901
sS'6162'
p902
S'1517-1792'
p903
sS'10257'
p904
S'2208-1705'
p905
sS'173065'
p906
S'1517-1792'
p907
sS'1635'
p908
S'412-1338'
p909
sS'78457'
p910
S'599-1363'
p911
sS'43336'
p912
S'1518-1783'
p913
sS'81113'
p914
S'1837-1535'
p915
sS'114424'
p916
S'1619-592'
p917
sS'78296'
p918
S'2126-800'
p919
sS'583507'
p920
S'2219-1423'
p921
sS'33841'
p922
S'1358-1039'
p923
sS'925293'
p924
S'1535-1693'
p925
sS'366342'
p926
S'2225-1240'
p927
sS'164080'
p928
S'1646-399'
p929
sS'174155'
p930
S'1288-1597'
p931
sS'725816'
p932
S'2040-1535'
p933
sS'794715'
p934
S'1500-891'
p935
sS'89905'
p936
S'1440-1767'
p937
sS'140623'
p938
S'1098-1796'
p939
sS'45489'
p940
S'1547-1506'
p941
sS'191010'
p942
S'1549-1499'
p943
sS'297989'
p944
S'1673-1265'
p945
sS'190544'
p946
S'2271-886'
p947
sS'420878'
p948
S'730-1573'
p949
sS'336307'
p950
S'1335-1651'
p951
sS'222924'
p952
S'1239-1824'
p953
sS'126299'
p954
S'1144-1645'
p955
sS'126297'
p956
S'1393-1044'
p957
sS'80799'
p958
S'1762-1907'
p959
sS'72113'
p960
S'1513-1594'
p961
sS'309120'
p962
S'2060-1513'
p963
sS'260796'
p964
S'1811-771'
p965
sS'67731'
p966
S'1870-956'
p967
sS'140444'
p968
S'1518-1053'
p969
sS'49331'
p970
S'1196-1626'
p971
sS'236293'
p972
S'1916-1379'
p973
sS'22344'
p974
S'1793-772'
p975
sS'293124'
p976
S'1523-1517'
p977
sS'294184'
p978
S'934-996'
p979
sS'100567'
p980
S'1726-932'
p981
sS'70176'
p982
S'1774-1662'
p983
sS'199278'
p984
S'2040-772'
p985
sS'138270'
p986
S'1882-828'
p987
sS'105264'
p988
S'1230-1643'
p989
s.