(dp1
S'123925'
p2
S'1385-1470'
p3
sS'897962'
p4
S'806-1600'
p5
sS'1980123'
p6
S'1370-1041'
p7
sS'1634439'
p8
S'1528-1662'
p9
sS'49428'
p10
S'1610-1162'
p11
sS'295262'
p12
S'2275-1284'
p13
sS'35624'
p14
S'469-1013'
p15
sS'36668'
p16
S'1064-1645'
p17
sS'115950'
p18
S'2344-1288'
p19
sS'1238843'
p20
S'1148-1709'
p21
sS'1297561'
p22
S'1623-824'
p23
sS'24714'
p24
S'598-1369'
p25
sS'7519'
p26
S'402-1015'
p27
sS'2910'
p28
S'1340-1754'
p29
sS'199618'
p30
S'1826-1669'
p31
sS'227937'
p32
S'1089-995'
p33
sS'295562'
p34
S'1518-1778'
p35
sS'26934'
p36
S'717-954'
p37
sS'207150'
p38
S'1579-1405'
p39
sS'86406'
p40
S'1537-1693'
p41
sS'382210'
p42
S'2117-1543'
p43
sS'57934'
p44
S'1917-1332'
p45
sS'485051'
p46
S'1704-772'
p47
sS'337742'
p48
S'1636-771'
p49
sS'268102'
p50
S'1612-1099'
p51
sS'257337'
p52
S'1448-1647'
p53
sS'65652'
p54
S'611-1274'
p55
sS'120059'
p56
S'1534-1608'
p57
sS'788743'
p58
S'1914-888'
p59
sS'109473'
p60
S'2202-1883'
p61
sS'67256'
p62
S'1663-981'
p63
sS'3774'
p64
S'1441-1647'
p65
sS'130094'
p66
S'1548-872'
p67
sS'128581'
p68
S'1785-1320'
p69
sS'448638'
p70
S'1785-1309'
p71
sS'60139'
p72
S'1230-1622'
p73
sS'159744'
p74
S'1156-1729'
p75
sS'26724'
p76
S'1793-779'
p77
sS'1482686'
p78
S'1609-1192'
p79
sS'316746'
p80
S'1154-1729'
p81
sS'341627'
p82
S'1786-1290'
p83
sS'167230'
p84
S'705-1518'
p85
sS'16052'
p86
S'2301-1731'
p87
sS'31674'
p88
S'612-1285'
p89
sS'81333'
p90
S'1656-1477'
p91
sS'653663'
p92
S'1608-1265'
p93
sS'174109'
p94
S'1584-1895'
p95
sS'63656'
p96
S'2818-1795'
p97
sS'149410'
p98
S'2002-2396'
p99
sS'100010'
p100
S'1584-1387'
p101
sS'40330'
p102
S'1486-1533'
p103
sS'1938480'
p104
S'1008-993'
p105
sS'1526071'
p106
S'1617-883'
p107
sS'222589'
p108
S'1774-1932'
p109
sS'298392'
p110
S'1507-1446'
p111
sS'143316'
p112
S'2207-1731'
p113
sS'53733'
p114
S'1132-1791'
p115
sS'17039'
p116
S'1787-1241'
p117
sS'1570936'
p118
S'2123-1279'
p119
sS'39929'
p120
S'1159-1641'
p121
sS'1949595'
p122
S'1708-772'
p123
sS'22903'
p124
S'1521-1053'
p125
sS'47794'
p126
S'1579-1404'
p127
sS'526040'
p128
S'1989-996'
p129
sS'86148'
p130
S'1612-1066'
p131
sS'125582'
p132
S'2244-1282'
p133
sS'141128'
p134
S'602-1341'
p135
sS'239628'
p136
S'2115-1543'
p137
sS'511930'
p138
S'1794-705'
p139
sS'455522'
p140
S'1612-1071'
p141
sS'144058'
p142
S'459-1352'
p143
sS'143414'
p144
S'732-1074'
p145
sS'325972'
p146
S'1608-1226'
p147
sS'126835'
p148
S'1791-1001'
p149
sS'1356428'
p150
S'1346-1577'
p151
sS'135968'
p152
S'1341-1580'
p153
sS'1954930'
p154
S'1777-1501'
p155
sS'574963'
p156
S'1793-787'
p157
sS'354786'
p158
S'1400-1515'
p159
sS'5136'
p160
S'836-1001'
p161
sS'299236'
p162
S'1734-1266'
p163
sS'121065'
p164
S'1554-1650'
p165
sS'106039'
p166
S'1645-786'
p167
sS'376793'
p168
S'1873-1514'
p169
sS'44762'
p170
S'1611-1133'
p171
sS'501564'
p172
S'1652-1552'
p173
sS'218884'
p174
S'1620-618'
p175
sS'729293'
p176
S'1928-772'
p177
sS'103618'
p178
S'1516-1053'
p179
sS'163665'
p180
S'733-1541'
p181
sS'291142'
p182
S'602-1344'
p183
sS'358947'
p184
S'1160-1645'
p185
sS'65607'
p186
S'1260-1647'
p187
sS'248790'
p188
S'1681-966'
p189
sS'238898'
p190
S'1793-824'
p191
sS'26321'
p192
S'1794-840'
p193
sS'359067'
p194
S'1332-1753'
p195
sS'5229'
p196
S'1186-1936'
p197
sS'265707'
p198
S'606-1429'
p199
sS'1968617'
p200
S'1790-975'
p201
sS'196288'
p202
S'1680-772'
p203
sS'248226'
p204
S'1526-1648'
p205
sS'1974848'
p206
S'322-1011'
p207
sS'215516'
p208
S'2269-1334'
p209
sS'15143'
p210
S'1385-1744'
p211
sS'1442163'
p212
S'1528-1657'
p213
sS'264179'
p214
S'2207-1758'
p215
sS'39522'
p216
S'3087-1847'
p217
sS'958215'
p218
S'1610-1187'
p219
sS'779796'
p220
S'1569-1436'
p221
sS'222259'
p222
S'1612-1057'
p223
sS'305975'
p224
S'944-995'
p225
sS'1017951'
p226
S'1793-814'
p227
sS'1312933'
p228
S'1587-1353'
p229
sS'189858'
p230
S'2271-860'
p231
sS'270934'
p232
S'1541-1528'
p233
sS'14395'
p234
S'1200-1624'
p235
sS'176840'
p236
S'1445-1868'
p237
sS'818086'
p238
S'1742-1367'
p239
sS'652192'
p240
S'1465-1052'
p241
sS'261307'
p242
S'1328-1753'
p243
sS'1935888'
p244
S'1654-987'
p245
sS'34012'
p246
S'1705-772'
p247
sS'1412122'
p248
S'1917-1339'
p249
sS'832291'
p250
S'1229-1612'
p251
sS'481093'
p252
S'1525-1693'
p253
sS'1094305'
p254
S'1620-696'
p255
sS'138644'
p256
S'1612-1265'
p257
sS'330593'
p258
S'1916-1465'
p259
sS'209922'
p260
S'1653-359'
p261
sS'237857'
p262
S'1338-1582'
p263
sS'33114'
p264
S'364-1183'
p265
sS'126289'
p266
S'1761-1662'
p267
sS'1959759'
p268
S'1552-1488'
p269
sS'16683'
p270
S'1794-842'
p271
sS'80788'
p272
S'715-946'
p273
sS'153024'
p274
S'1135-1778'
p275
sS'13832'
p276
S'2207-1744'
p277
sS'77575'
p278
S'1632-1382'
p279
sS'727818'
p280
S'1686-772'
p281
sS'1177880'
p282
S'1152-1644'
p283
sS'271871'
p284
S'2009-1531'
p285
sS'107097'
p286
S'1614-1016'
p287
sS'196302'
p288
S'2003-880'
p289
sS'70290'
p290
S'1807-985'
p291
sS'204509'
p292
S'2364-1740'
p293
sS'1436199'
p294
S'1529-1642'
p295
sS'92491'
p296
S'1794-896'
p297
sS'14390'
p298
S'1881-830'
p299
sS'73729'
p300
S'667-1492'
p301
sS'784933'
p302
S'3251-1881'
p303
sS'6329'
p304
S'2305-1299'
p305
sS'1179102'
p306
S'1271-1648'
p307
sS'18484'
p308
S'519-1367'
p309
sS'1663175'
p310
S'1847-1517'
p311
sS'73473'
p312
S'1790-905'
p313
sS'304707'
p314
S'269-1036'
p315
sS'158019'
p316
S'2087-883'
p317
sS'191222'
p318
S'1405-1581'
p319
sS'31990'
p320
S'1612-1050'
p321
sS'406389'
p322
S'1639-1265'
p323
sS'594788'
p324
S'1584-1388'
p325
sS'363057'
p326
S'1504-1936'
p327
sS'33433'
p328
S'1879-843'
p329
sS'45336'
p330
S'1609-1061'
p331
sS'195344'
p332
S'1014-993'
p333
sS'218977'
p334
S'1804-772'
p335
sS'222041'
p336
S'1914-1548'
p337
sS'308360'
p338
S'439-1347'
p339
sS'75439'
p340
S'1401-1503'
p341
sS'433598'
p342
S'1794-676'
p343
sS'163439'
p344
S'1774-1611'
p345
sS'527173'
p346
S'1587-1378'
p347
sS'706'
p348
S'1646-771'
p349
sS'77024'
p350
S'1644-1489'
p351
sS'701211'
p352
S'1835-769'
p353
sS'20293'
p354
S'1755-986'
p355
sS'57927'
p356
S'1999-1273'
p357
sS'24020'
p358
S'2203-1867'
p359
sS'160582'
p360
S'1526-1517'
p361
sS'227356'
p362
S'1666-301'
p363
sS'101781'
p364
S'2227-1200'
p365
sS'1426719'
p366
S'573-1006'
p367
sS'1134'
p368
S'1350-1572'
p369
sS'1970284'
p370
S'1262-1024'
p371
sS'24205'
p372
S'2897-1809'
p373
sS'32200'
p374
S'1968-995'
p375
sS'411929'
p376
S'1678-1364'
p377
sS'251645'
p378
S'1817-1268'
p379
sS'972663'
p380
S'803-1600'
p381
sS'576155'
p382
S'1325-1650'
p383
sS'504580'
p384
S'2205-1803'
p385
sS'156467'
p386
S'330-1011'
p387
sS'411369'
p388
S'2215-1719'
p389
sS'106638'
p390
S'1618-671'
p391
sS'179492'
p392
S'1747-1661'
p393
sS'296634'
p394
S'1777-1267'
p395
sS'301451'
p396
S'1135-1777'
p397
sS'730191'
p398
S'1427-1645'
p399
sS'1067393'
p400
S'1679-968'
p401
sS'105337'
p402
S'541-1008'
p403
sS'334930'
p404
S'1415-1492'
p405
sS'345480'
p406
S'1611-1023'
p407
sS'442197'
p408
S'1767-1367'
p409
sS'224742'
p410
S'1791-952'
p411
sS'112902'
p412
S'2203-1853'
p413
sS'222907'
p414
S'1835-900'
p415
sS'127696'
p416
S'1831-1508'
p417
sS'160364'
p418
S'2301-1331'
p419
sS'145703'
p420
S'1340-1651'
p421
sS'125559'
p422
S'1305-1033'
p423
sS'26526'
p424
S'2658-1779'
p425
sS'165391'
p426
S'2118-1403'
p427
sS'28176'
p428
S'1514-1053'
p429
sS'278573'
p430
S'526-1009'
p431
sS'164401'
p432
S'1903-1679'
p433
sS'90089'
p434
S'1149-1707'
p435
sS'83951'
p436
S'1405-1045'
p437
sS'72572'
p438
S'1408-1481'
p439
sS'228568'
p440
S'305-1011'
p441
sS'317237'
p442
S'440-1092'
p443
sS'204474'
p444
S'1262-1647'
p445
sS'428298'
p446
S'1553-1783'
p447
sS'1453603'
p448
S'1134-999'
p449
sS'719789'
p450
S'1487-1054'
p451
sS'738505'
p452
S'1723-779'
p453
sS'1350145'
p454
S'2040-880'
p455
sS'181694'
p456
S'1871-946'
p457
sS'309811'
p458
S'1556-1052'
p459
sS'1283058'
p460
S'514-1010'
p461
sS'256325'
p462
S'1639-429'
p463
sS'293819'
p464
S'2207-1746'
p465
sS'1936002'
p466
S'1325-1650'
p467
sS'82704'
p468
S'1018-993'
p469
sS'26596'
p470
S'2207-1736'
p471
sS'30401'
p472
S'2101-884'
p473
sS'20122'
p474
S'1643-996'
p475
sS'76821'
p476
S'1644-407'
p477
sS'1884815'
p478
S'1386-1043'
p479
sS'132930'
p480
S'692-1507'
p481
sS'315165'
p482
S'424-1342'
p483
sS'1980773'
p484
S'1400-1044'
p485
sS'190827'
p486
S'1696-1266'
p487
sS'181441'
p488
S'1914-1559'
p489
sS'260546'
p490
S'1908-1270'
p491
sS'41773'
p492
S'439-1023'
p493
sS'172993'
p494
S'1794-1367'
p495
sS'16754'
p496
S'1784-1328'
p497
sS'77617'
p498
S'1636-779'
p499
sS'806587'
p500
S'1149-1681'
p501
sS'75'
p502
S'2052-1699'
p503
sS'850328'
p504
S'1428-1048'
p505
sS'28034'
p506
S'1567-1052'
p507
sS'114716'
p508
S'1149-1693'
p509
sS'87054'
p510
S'1538-1649'
p511
sS'240996'
p512
S'815-1002'
p513
sS'1564667'
p514
S'627-1003'
p515
sS'955828'
p516
S'713-933'
p517
sS'1405040'
p518
S'1786-1272'
p519
sS'64571'
p520
S'1794-875'
p521
sS'12486'
p522
S'1793-772'
p523
sS'562784'
p524
S'1148-1711'
p525
sS'309071'
p526
S'1843-769'
p527
sS'15518'
p528
S'1584-1493'
p529
sS'1981037'
p530
S'1609-1205'
p531
sS'32131'
p532
S'1920-1383'
p533
sS'11667'
p534
S'596-1385'
p535
sS'1958346'
p536
S'1794-884'
p537
sS'1054215'
p538
S'1376-1819'
p539
sS'45430'
p540
S'1617-811'
p541
sS'216476'
p542
S'1786-1267'
p543
sS'8650'
p544
S'734-1555'
p545
sS'174694'
p546
S'1785-1298'
p547
sS'315940'
p548
S'1248-1741'
p549
sS'66019'
p550
S'299-1011'
p551
sS'50886'
p552
S'1350-1572'
p553
sS'468365'
p554
S'504-1275'
p555
sS'999'
p556
S'2141-1999'
p557
sS'240221'
p558
S'1412-1763'
p559
sS'639658'
p560
S'1165-1731'
p561
sS'1995728'
p562
S'978-994'
p563
sS'221099'
p564
S'1657-985'
p565
sS'254188'
p566
S'1625-754'
p567
sS'108212'
p568
S'1596-1329'
p569
sS'469174'
p570
S'1387-1616'
p571
sS'85994'
p572
S'611-1446'
p573
sS'358441'
p574
S'1288-1029'
p575
sS'293713'
p576
S'2114-773'
p577
sS'367108'
p578
S'2451-892'
p579
sS'126771'
p580
S'710-1522'
p581
sS'10753'
p582
S'485-1359'
p583
sS'38203'
p584
S'1612-1096'
p585
sS'112909'
p586
S'538-1275'
p587
sS'35350'
p588
S'1133-999'
p589
sS'55735'
p590
S'1384-1735'
p591
sS'1936049'
p592
S'2371-1741'
p593
sS'1611542'
p594
S'1150-1645'
p595
sS'1946001'
p596
S'1715-772'
p597
sS'107225'
p598
S'2037-1697'
p599
sS'307753'
p600
S'1467-1649'
p601
sS'64206'
p602
S'1440-1588'
p603
sS'76989'
p604
S'1269-1647'
p605
sS'36990'
p606
S'2030-1275'
p607
sS'8448'
p608
S'1230-1629'
p609
sS'435026'
p610
S'1820-1268'
p611
sS'3471'
p612
S'1656-1265'
p613
sS'1073960'
p614
S'1597-1319'
p615
sS'37434'
p616
S'2342-1288'
p617
sS'251378'
p618
S'1617-832'
p619
sS'20590'
p620
S'1618-670'
p621
sS'84183'
p622
S'1254-1022'
p623
sS'4490'
p624
S'1441-1498'
p625
sS'299998'
p626
S'1315-993'
p627
sS'808255'
p628
S'2292-1821'
p629
sS'319566'
p630
S'1655-1493'
p631
sS'1392446'
p632
S'339-1123'
p633
sS'406255'
p634
S'1668-292'
p635
sS'81698'
p636
S'1643-1660'
p637
sS'334743'
p638
S'1567-1052'
p639
sS'42533'
p640
S'1133-1786'
p641
sS'284500'
p642
S'1851-453'
p643
sS'11518'
p644
S'440-1198'
p645
sS'156270'
p646
S'1712-1706'
p647
sS'161220'
p648
S'1577-1676'
p649
sS'146350'
p650
S'1297-1594'
p651
sS'910403'
p652
S'1655-1366'
p653
sS'897948'
p654
S'1505-1649'
p655
sS'982803'
p656
S'2287-1285'
p657
sS'34292'
p658
S'2016-1979'
p659
sS'69293'
p660
S'1113-1645'
p661
sS'40267'
p662
S'699-1004'
p663
sS'1608585'
p664
S'1369-1499'
p665
sS'646626'
p666
S'2012-1092'
p667
sS'222232'
p668
S'1765-1859'
p669
sS'214340'
p670
S'2174-1550'
p671
sS'259068'
p672
S'1619-604'
p673
sS'331392'
p674
S'2356-1845'
p675
sS'45964'
p676
S'1262-1744'
p677
sS'101'
p678
S'1763-1545'
p679
sS'64585'
p680
S'3124-1855'
p681
sS'1968552'
p682
S'1884-810'
p683
sS'98982'
p684
S'1864-1013'
p685
sS'205146'
p686
S'439-1020'
p687
sS'193555'
p688
S'1651-990'
p689
sS'1139290'
p690
S'2029-1395'
p691
sS'230966'
p692
S'1775-1648'
p693
sS'507761'
p694
S'1189-1008'
p695
sS'153504'
p696
S'1629-1265'
p697
sS'152999'
p698
S'1551-1492'
p699
sS'203661'
p700
S'507-1363'
p701
sS'8061'
p702
S'1602-1288'
p703
sS'194983'
p704
S'1794-908'
p705
sS'582439'
p706
S'1384-1577'
p707
sS'95081'
p708
S'1485-1773'
p709
sS'79240'
p710
S'1793-1078'
p711
sS'101457'
p712
S'1218-1915'
p713
sS'140826'
p714
S'859-1612'
p715
sS'1460883'
p716
S'821-1604'
p717
sS'126100'
p718
S'1794-887'
p719
sS'91946'
p720
S'662-1491'
p721
sS'404010'
p722
S'1150-1653'
p723
sS'13796'
p724
S'1478-1503'
p725
sS'111597'
p726
S'1617-801'
p727
sS'64324'
p728
S'1673-1243'
p729
sS'677164'
p730
S'576-1005'
p731
sS'168997'
p732
S'2019-879'
p733
sS'435269'
p734
S'2347-1288'
p735
sS'147919'
p736
S'1602-1381'
p737
sS'271816'
p738
S'1230-1620'
p739
sS'210883'
p740
S'2066-1701'
p741
sS'1715316'
p742
S'1478-625'
p743
sS'63729'
p744
S'1378-1804'
p745
sS'459195'
p746
S'1601-1292'
p747
sS'36559'
p748
S'1521-1778'
p749
sS'1967784'
p750
S'1612-1090'
p751
sS'111351'
p752
S'1201-1624'
p753
sS'321223'
p754
S'1374-1829'
p755
sS'113124'
p756
S'1641-1265'
p757
sS'6229'
p758
S'588-1380'
p759
sS'1967422'
p760
S'1353-1536'
p761
sS'35220'
p762
S'2831-1728'
p763
sS'897'
p764
S'1798-1062'
p765
sS'374124'
p766
S'1522-1053'
p767
sS'168207'
p768
S'1293-1030'
p769
sS'110039'
p770
S'1609-1191'
p771
sS'23989'
p772
S'1616-941'
p773
sS'480910'
p774
S'2915-1812'
p775
sS'1337641'
p776
S'1534-1608'
p777
sS'163125'
p778
S'1784-1338'
p779
sS'95194'
p780
S'1373-1483'
p781
sS'34952'
p782
S'835-1001'
p783
sS'271256'
p784
S'1413-1862'
p785
sS'7336'
p786
S'514-1354'
p787
sS'1962294'
p788
S'1542-1649'
p789
sS'37273'
p790
S'1469-1053'
p791
sS'90182'
p792
S'2230-1121'
p793
sS'1409813'
p794
S'1812-1369'
p795
sS'165965'
p796
S'1551-1053'
p797
sS'284071'
p798
S'1550-1053'
p799
sS'114665'
p800
S'2221-1339'
p801
sS'10212'
p802
S'1460-1501'
p803
sS'191937'
p804
S'3050-1839'
p805
sS'213907'
p806
S'713-933'
p807
sS'107763'
p808
S'1552-1490'
p809
sS'508924'
p810
S'1384-1759'
p811
sS'92011'
p812
S'1476-1697'
p813
sS'231565'
p814
S'1613-1006'
p815
sS'205683'
p816
S'1568-1052'
p817
sS'115505'
p818
S'1474-1874'
p819
sS'62067'
p820
S'2156-1807'
p821
sS'62038'
p822
S'667-1492'
p823
sS'86484'
p824
S'1531-1053'
p825
sS'1936352'
p826
S'1659-1409'
p827
sS'129483'
p828
S'1872-885'
p829
sS'67945'
p830
S'2215-1538'
p831
sS'52129'
p832
S'1983-1689'
p833
sS'666562'
p834
S'428-1296'
p835
sS'15342'
p836
S'439-1021'
p837
sS'87751'
p838
S'1821-770'
p839
sS'636061'
p840
S'1375-1651'
p841
sS'763584'
p842
S'1594-1340'
p843
sS'5765'
p844
S'1818-1507'
p845
sS'760360'
p846
S'1604-1276'
p847
sS'18356'
p848
S'1607-1024'
p849
sS'129893'
p850
S'1338-1740'
p851
sS'300162'
p852
S'1604-1276'
p853
sS'59515'
p854
S'1627-1492'
p855
sS'167138'
p856
S'1644-620'
p857
sS'50803'
p858
S'2381-1130'
p859
sS'14440'
p860
S'1609-1196'
p861
sS'103472'
p862
S'543-1418'
p863
sS'415298'
p864
S'610-1179'
p865
sS'22656'
p866
S'1791-1156'
p867
sS'1990551'
p868
S'1848-897'
p869
sS'1517127'
p870
S'1457-1047'
p871
sS'61425'
p872
S'1979-1862'
p873
sS'270190'
p874
S'1142-1000'
p875
sS'1965732'
p876
S'1882-1636'
p877
sS'1035999'
p878
S'1354-1532'
p879
sS'24684'
p880
S'1612-1056'
p881
sS'823946'
p882
S'1765-1831'
p883
sS'251347'
p884
S'1689-1613'
p885
sS'90717'
p886
S'1202-1645'
p887
sS'193832'
p888
S'1653-1486'
p889
sS'1686081'
p890
S'1191-1734'
p891
sS'155745'
p892
S'610-1294'
p893
sS'179722'
p894
S'1550-1495'
p895
sS'33368'
p896
S'1149-1676'
p897
sS'321281'
p898
S'1658-1265'
p899
sS'217929'
p900
S'1594-1560'
p901
sS'9036'
p902
S'1923-1383'
p903
sS'20405'
p904
S'1619-655'
p905
sS'6162'
p906
S'1518-1784'
p907
sS'10257'
p908
S'2208-1718'
p909
sS'173065'
p910
S'1516-1808'
p911
sS'1635'
p912
S'412-1338'
p913
sS'78457'
p914
S'599-1360'
p915
sS'43336'
p916
S'1515-1814'
p917
sS'81113'
p918
S'1828-1538'
p919
sS'114424'
p920
S'1618-579'
p921
sS'78296'
p922
S'2123-792'
p923
sS'583507'
p924
S'2219-1413'
p925
sS'33841'
p926
S'1351-1039'
p927
sS'925293'
p928
S'1532-1693'
p929
sS'366342'
p930
S'2226-1234'
p931
sS'164080'
p932
S'1643-412'
p933
sS'174155'
p934
S'1294-1595'
p935
sS'725816'
p936
S'2037-1534'
p937
sS'794715'
p938
S'1498-895'
p939
sS'89905'
p940
S'1443-1767'
p941
sS'140623'
p942
S'1112-1798'
p943
sS'45489'
p944
S'1544-1513'
p945
sS'191010'
p946
S'1547-1505'
p947
sS'297989'
p948
S'1675-1265'
p949
sS'190544'
p950
S'2271-875'
p951
sS'420878'
p952
S'728-1584'
p953
sS'336307'
p954
S'1318-1650'
p955
sS'222924'
p956
S'1235-1823'
p957
sS'126299'
p958
S'1136-1645'
p959
sS'126297'
p960
S'1400-1044'
p961
sS'80799'
p962
S'1763-1893'
p963
sS'72113'
p964
S'1507-1594'
p965
sS'309120'
p966
S'2060-1500'
p967
sS'260796'
p968
S'1811-771'
p969
sS'67731'
p970
S'1871-947'
p971
sS'140444'
p972
S'1510-1053'
p973
sS'49331'
p974
S'1208-1621'
p975
sS'236293'
p976
S'1916-1379'
p977
sS'22344'
p978
S'1793-772'
p979
sS'293124'
p980
S'1524-1517'
p981
sS'294184'
p982
S'937-996'
p983
sS'100567'
p984
S'1720-936'
p985
sS'70176'
p986
S'1765-1662'
p987
sS'199278'
p988
S'2018-772'
p989
sS'138270'
p990
S'1882-824'
p991
sS'105264'
p992
S'1230-1640'
p993
s.