(dp1
S'123925'
p2
S'1388-1466'
p3
sS'897962'
p4
S'801-1599'
p5
sS'1980123'
p6
S'1377-1042'
p7
sS'1634439'
p8
S'1528-1656'
p9
sS'49428'
p10
S'1611-1154'
p11
sS'295262'
p12
S'2273-1284'
p13
sS'35624'
p14
S'481-1012'
p15
sS'36668'
p16
S'1068-1645'
p17
sS'115950'
p18
S'2348-1288'
p19
sS'1238843'
p20
S'1149-1707'
p21
sS'1297561'
p22
S'1623-825'
p23
sS'24714'
p24
S'597-1374'
p25
sS'7519'
p26
S'417-1017'
p27
sS'2910'
p28
S'1347-1755'
p29
sS'199618'
p30
S'1824-1669'
p31
sS'41795'
p32
S'1567-1467'
p33
sS'227937'
p34
S'1095-995'
p35
sS'295562'
p36
S'1518-1778'
p37
sS'26934'
p38
S'716-949'
p39
sS'207150'
p40
S'1583-1391'
p41
sS'86406'
p42
S'1529-1693'
p43
sS'382210'
p44
S'2113-1543'
p45
sS'57934'
p46
S'1917-1334'
p47
sS'485051'
p48
S'1711-772'
p49
sS'337742'
p50
S'1637-771'
p51
sS'268102'
p52
S'1612-1113'
p53
sS'257337'
p54
S'1441-1647'
p55
sS'65652'
p56
S'612-1282'
p57
sS'120059'
p58
S'1534-1606'
p59
sS'788743'
p60
S'1925-887'
p61
sS'109473'
p62
S'2202-1873'
p63
sS'67256'
p64
S'1668-976'
p65
sS'3774'
p66
S'1452-1647'
p67
sS'130094'
p68
S'1549-872'
p69
sS'128581'
p70
S'1784-1330'
p71
sS'448638'
p72
S'1785-1304'
p73
sS'60139'
p74
S'1230-1622'
p75
sS'159744'
p76
S'1158-1730'
p77
sS'26724'
p78
S'1793-780'
p79
sS'1482686'
p80
S'1609-1199'
p81
sS'316746'
p82
S'1161-1730'
p83
sS'341627'
p84
S'1785-1296'
p85
sS'167230'
p86
S'702-1516'
p87
sS'16052'
p88
S'2301-1731'
p89
sS'31674'
p90
S'607-1281'
p91
sS'81333'
p92
S'1656-1482'
p93
sS'653663'
p94
S'1616-1265'
p95
sS'174109'
p96
S'1579-1894'
p97
sS'63656'
p98
S'2828-1796'
p99
sS'149410'
p100
S'2002-2395'
p101
sS'100010'
p102
S'1588-1380'
p103
sS'40330'
p104
S'1493-1527'
p105
sS'1938480'
p106
S'1018-993'
p107
sS'1526071'
p108
S'1617-883'
p109
sS'222589'
p110
S'1784-1934'
p111
sS'298392'
p112
S'1512-1447'
p113
sS'143316'
p114
S'2207-1744'
p115
sS'53733'
p116
S'1133-1786'
p117
sS'17039'
p118
S'1787-1234'
p119
sS'1570936'
p120
S'2115-1278'
p121
sS'39929'
p122
S'1150-1645'
p123
sS'1949595'
p124
S'1715-772'
p125
sS'22903'
p126
S'1519-1053'
p127
sS'47794'
p128
S'1579-1404'
p129
sS'526040'
p130
S'1998-996'
p131
sS'86148'
p132
S'1612-1073'
p133
sS'125582'
p134
S'2250-1283'
p135
sS'141128'
p136
S'603-1337'
p137
sS'239628'
p138
S'2121-1544'
p139
sS'511930'
p140
S'1794-707'
p141
sS'455522'
p142
S'1612-1083'
p143
sS'144058'
p144
S'460-1352'
p145
sS'143414'
p146
S'733-1086'
p147
sS'325972'
p148
S'1608-1222'
p149
sS'126835'
p150
S'1790-993'
p151
sS'1356428'
p152
S'1343-1578'
p153
sS'135968'
p154
S'1338-1582'
p155
sS'1954930'
p156
S'1767-1500'
p157
sS'574963'
p158
S'1793-785'
p159
sS'354786'
p160
S'1400-1515'
p161
sS'5136'
p162
S'841-1000'
p163
sS'299236'
p164
S'1741-1266'
p165
sS'121065'
p166
S'1544-1649'
p167
sS'106039'
p168
S'1645-787'
p169
sS'376793'
p170
S'1870-1513'
p171
sS'44762'
p172
S'1612-1123'
p173
sS'501564'
p174
S'1652-1559'
p175
sS'729293'
p176
S'1931-772'
p177
sS'103618'
p178
S'1515-1053'
p179
sS'163665'
p180
S'728-1537'
p181
sS'291142'
p182
S'602-1343'
p183
sS'358947'
p184
S'1160-1645'
p185
sS'65607'
p186
S'1269-1647'
p187
sS'248790'
p188
S'1687-962'
p189
sS'238898'
p190
S'1793-824'
p191
sS'26321'
p192
S'1794-850'
p193
sS'359067'
p194
S'1338-1754'
p195
sS'5229'
p196
S'1184-1936'
p197
sS'265707'
p198
S'607-1431'
p199
sS'1968617'
p200
S'1789-978'
p201
sS'196288'
p202
S'1685-772'
p203
sS'248226'
p204
S'1514-1648'
p205
sS'1974848'
p206
S'318-1011'
p207
sS'215516'
p208
S'2275-1334'
p209
sS'15143'
p210
S'1385-1743'
p211
sS'1442163'
p212
S'1527-1668'
p213
sS'264179'
p214
S'2207-1751'
p215
sS'39522'
p216
S'3104-1850'
p217
sS'958215'
p218
S'1609-1195'
p219
sS'779796'
p220
S'1567-1441'
p221
sS'222259'
p222
S'1612-1061'
p223
sS'305975'
p224
S'933-996'
p225
sS'1017951'
p226
S'1793-815'
p227
sS'1312933'
p228
S'1574-1354'
p229
sS'189858'
p230
S'2271-852'
p231
sS'270934'
p232
S'1542-1523'
p233
sS'14395'
p234
S'1208-1621'
p235
sS'176840'
p236
S'1432-1866'
p237
sS'818086'
p238
S'1751-1367'
p239
sS'652192'
p240
S'1475-1053'
p241
sS'261307'
p242
S'1333-1753'
p243
sS'1935888'
p244
S'1661-982'
p245
sS'34012'
p246
S'1704-772'
p247
sS'1412122'
p248
S'1917-1336'
p249
sS'832291'
p250
S'1228-1613'
p251
sS'481093'
p252
S'1525-1693'
p253
sS'1094305'
p254
S'1621-705'
p255
sS'138644'
p256
S'1605-1265'
p257
sS'330593'
p258
S'1916-1472'
p259
sS'209922'
p260
S'1653-367'
p261
sS'237857'
p262
S'1343-1578'
p263
sS'33114'
p264
S'361-1178'
p265
sS'126289'
p266
S'1752-1661'
p267
sS'1959759'
p268
S'1550-1494'
p269
sS'16683'
p270
S'1794-849'
p271
sS'80788'
p272
S'715-942'
p273
sS'153024'
p274
S'1136-1771'
p275
sS'13832'
p276
S'2207-1744'
p277
sS'77575'
p278
S'1630-1382'
p279
sS'727818'
p280
S'1691-772'
p281
sS'1177880'
p282
S'1153-1644'
p283
sS'271871'
p284
S'2000-1530'
p285
sS'107097'
p286
S'1614-1015'
p287
sS'196302'
p288
S'1995-881'
p289
sS'70290'
p290
S'1810-986'
p291
sS'1436199'
p292
S'1528-1656'
p293
sS'92491'
p294
S'1794-898'
p295
sS'14390'
p296
S'1882-822'
p297
sS'73729'
p298
S'660-1491'
p299
sS'784933'
p300
S'3239-1878'
p301
sS'6329'
p302
S'2306-1293'
p303
sS'1179102'
p304
S'1250-1646'
p305
sS'18484'
p306
S'520-1368'
p307
sS'1663175'
p308
S'1847-1515'
p309
sS'73473'
p310
S'1790-905'
p311
sS'304707'
p312
S'269-1037'
p313
sS'158019'
p314
S'2100-884'
p315
sS'191222'
p316
S'1411-1583'
p317
sS'31990'
p318
S'1612-1058'
p319
sS'406389'
p320
S'1651-1265'
p321
sS'594788'
p322
S'1587-1378'
p323
sS'363057'
p324
S'1504-1937'
p325
sS'33433'
p326
S'1879-846'
p327
sS'45336'
p328
S'1612-1062'
p329
sS'195344'
p330
S'1021-993'
p331
sS'218977'
p332
S'1803-772'
p333
sS'222041'
p334
S'1914-1557'
p335
sS'308360'
p336
S'437-1347'
p337
sS'75439'
p338
S'1403-1494'
p339
sS'433598'
p340
S'1794-675'
p341
sS'163439'
p342
S'1774-1610'
p343
sS'527173'
p344
S'1590-1364'
p345
sS'706'
p346
S'1648-771'
p347
sS'77024'
p348
S'1638-1492'
p349
sS'701211'
p350
S'1838-769'
p351
sS'20293'
p352
S'1758-985'
p353
sS'57927'
p354
S'1997-1273'
p355
sS'24020'
p356
S'2203-1861'
p357
sS'160582'
p358
S'1523-1517'
p359
sS'227356'
p360
S'1669-290'
p361
sS'101781'
p362
S'2228-1193'
p363
sS'1426719'
p364
S'575-1005'
p365
sS'1134'
p366
S'1347-1576'
p367
sS'1970284'
p368
S'1265-1024'
p369
sS'24205'
p370
S'2905-1810'
p371
sS'32200'
p372
S'1975-995'
p373
sS'411929'
p374
S'1676-1364'
p375
sS'251645'
p376
S'1832-1268'
p377
sS'972663'
p378
S'796-1598'
p379
sS'576155'
p380
S'1304-1649'
p381
sS'504580'
p382
S'2205-1803'
p383
sS'156467'
p384
S'330-1011'
p385
sS'411369'
p386
S'2211-1718'
p387
sS'106638'
p388
S'1618-672'
p389
sS'179492'
p390
S'1737-1660'
p391
sS'296634'
p392
S'1786-1267'
p393
sS'301451'
p394
S'1133-1784'
p395
sS'730191'
p396
S'1423-1645'
p397
sS'1067393'
p398
S'1683-965'
p399
sS'105337'
p400
S'527-1009'
p401
sS'334930'
p402
S'1416-1492'
p403
sS'345480'
p404
S'1612-1029'
p405
sS'442197'
p406
S'1757-1367'
p407
sS'224742'
p408
S'1791-955'
p409
sS'112902'
p410
S'2203-1853'
p411
sS'222907'
p412
S'1833-900'
p413
sS'127696'
p414
S'1836-1509'
p415
sS'160364'
p416
S'2301-1332'
p417
sS'145703'
p418
S'1334-1651'
p419
sS'125559'
p420
S'1291-1030'
p421
sS'26526'
p422
S'2670-1780'
p423
sS'165391'
p424
S'2127-1403'
p425
sS'28176'
p426
S'1504-1053'
p427
sS'278573'
p428
S'538-1008'
p429
sS'164401'
p430
S'1896-1678'
p431
sS'90089'
p432
S'1149-1706'
p433
sS'83951'
p434
S'1409-1045'
p435
sS'72572'
p436
S'1403-1491'
p437
sS'228568'
p438
S'300-1011'
p439
sS'317237'
p440
S'440-1084'
p441
sS'204474'
p442
S'1259-1647'
p443
sS'428298'
p444
S'1551-1783'
p445
sS'1453603'
p446
S'1144-1000'
p447
sS'719789'
p448
S'1491-1054'
p449
sS'738505'
p450
S'1723-779'
p451
sS'1350145'
p452
S'2053-881'
p453
sS'181694'
p454
S'1873-937'
p455
sS'309811'
p456
S'1554-1052'
p457
sS'1283058'
p458
S'506-1010'
p459
sS'256325'
p460
S'1641-420'
p461
sS'293819'
p462
S'2207-1745'
p463
sS'1936002'
p464
S'1314-1650'
p465
sS'82704'
p466
S'1028-993'
p467
sS'26596'
p468
S'2207-1734'
p469
sS'30401'
p470
S'2097-883'
p471
sS'20122'
p472
S'1651-990'
p473
sS'76821'
p474
S'1641-420'
p475
sS'1884815'
p476
S'1385-1043'
p477
sS'132930'
p478
S'694-1509'
p479
sS'315165'
p480
S'426-1343'
p481
sS'1980773'
p482
S'1403-1045'
p483
sS'190827'
p484
S'1695-1266'
p485
sS'181441'
p486
S'1914-1552'
p487
sS'260546'
p488
S'1916-1270'
p489
sS'41773'
p490
S'439-1032'
p491
sS'172993'
p492
S'1793-1367'
p493
sS'16754'
p494
S'1785-1321'
p495
sS'77617'
p496
S'1636-779'
p497
sS'806587'
p498
S'1149-1682'
p499
sS'75'
p500
S'2047-1698'
p501
sS'850328'
p502
S'1440-1049'
p503
sS'28034'
p504
S'1566-1052'
p505
sS'114716'
p506
S'1149-1694'
p507
sS'87054'
p508
S'1546-1649'
p509
sS'240996'
p510
S'805-1003'
p511
sS'1564667'
p512
S'635-1004'
p513
sS'1405040'
p514
S'1786-1267'
p515
sS'64571'
p516
S'1794-876'
p517
sS'12486'
p518
S'1793-772'
p519
sS'562784'
p520
S'1148-1712'
p521
sS'309071'
p522
S'1844-768'
p523
sS'15518'
p524
S'1585-1493'
p525
sS'1981037'
p526
S'1609-1200'
p527
sS'32131'
p528
S'1921-1383'
p529
sS'11667'
p530
S'592-1380'
p531
sS'1958346'
p532
S'1794-885'
p533
sS'1054215'
p534
S'1376-1820'
p535
sS'45430'
p536
S'1617-809'
p537
sS'216476'
p538
S'1786-1267'
p539
sS'8650'
p540
S'732-1563'
p541
sS'174694'
p542
S'1785-1293'
p543
sS'315940'
p544
S'1254-1742'
p545
sS'66019'
p546
S'289-1011'
p547
sS'50886'
p548
S'1351-1562'
p549
sS'468365'
p550
S'509-1275'
p551
sS'999'
p552
S'2155-2002'
p553
sS'240221'
p554
S'1413-1763'
p555
sS'639658'
p556
S'1170-1731'
p557
sS'1995728'
p558
S'977-994'
p559
sS'221099'
p560
S'1664-980'
p561
sS'254188'
p562
S'1624-752'
p563
sS'108212'
p564
S'1595-1336'
p565
sS'469174'
p566
S'1387-1613'
p567
sS'85994'
p568
S'613-1450'
p569
sS'358441'
p570
S'1298-1031'
p571
sS'293713'
p572
S'2112-773'
p573
sS'367108'
p574
S'2453-892'
p575
sS'126771'
p576
S'714-1526'
p577
sS'10753'
p578
S'491-1360'
p579
sS'38203'
p580
S'1612-1081'
p581
sS'112909'
p582
S'533-1275'
p583
sS'35350'
p584
S'1117-997'
p585
sS'55735'
p586
S'1384-1734'
p587
sS'1936049'
p588
S'2355-1738'
p589
sS'1611542'
p590
S'1150-1645'
p591
sS'1946001'
p592
S'1717-772'
p593
sS'107225'
p594
S'2039-1697'
p595
sS'307753'
p596
S'1460-1648'
p597
sS'64206'
p598
S'1440-1588'
p599
sS'76989'
p600
S'1277-1648'
p601
sS'36990'
p602
S'2034-1275'
p603
sS'8448'
p604
S'1230-1629'
p605
sS'435026'
p606
S'1823-1268'
p607
sS'3471'
p608
S'1649-1265'
p609
sS'1073960'
p610
S'1595-1333'
p611
sS'37434'
p612
S'2347-1288'
p613
sS'251378'
p614
S'1617-822'
p615
sS'20590'
p616
S'1618-671'
p617
sS'84183'
p618
S'1262-1024'
p619
sS'4490'
p620
S'1430-1496'
p621
sS'299998'
p622
S'1316-992'
p623
sS'808255'
p624
S'2298-1822'
p625
sS'319566'
p626
S'1656-1484'
p627
sS'1392446'
p628
S'339-1127'
p629
sS'406255'
p630
S'1672-280'
p631
sS'81698'
p632
S'1643-1666'
p633
sS'334743'
p634
S'1578-1054'
p635
sS'42533'
p636
S'1131-1793'
p637
sS'284500'
p638
S'1853-450'
p639
sS'11518'
p640
S'440-1201'
p641
sS'156270'
p642
S'1701-1704'
p643
sS'161220'
p644
S'1576-1676'
p645
sS'146350'
p646
S'1290-1596'
p647
sS'910403'
p648
S'1657-1365'
p649
sS'897948'
p650
S'1511-1648'
p651
sS'982803'
p652
S'2297-1285'
p653
sS'34292'
p654
S'2022-1980'
p655
sS'69293'
p656
S'1118-1645'
p657
sS'40267'
p658
S'696-1004'
p659
sS'1608585'
p660
S'1362-1500'
p661
sS'646626'
p662
S'2013-1084'
p663
sS'222232'
p664
S'1765-1847'
p665
sS'214340'
p666
S'2173-1550'
p667
sS'259068'
p668
S'1619-602'
p669
sS'331392'
p670
S'2356-1842'
p671
sS'45964'
p672
S'1265-1744'
p673
sS'101'
p674
S'1768-1546'
p675
sS'64585'
p676
S'3113-1852'
p677
sS'1968552'
p678
S'1883-817'
p679
sS'98982'
p680
S'1864-1014'
p681
sS'205146'
p682
S'426-1018'
p683
sS'193555'
p684
S'1656-986'
p685
sS'1139290'
p686
S'2036-1396'
p687
sS'230966'
p688
S'1775-1655'
p689
sS'507761'
p690
S'1198-1010'
p691
sS'153504'
p692
S'1624-1265'
p693
sS'152999'
p694
S'1554-1483'
p695
sS'203661'
p696
S'498-1362'
p697
sS'8061'
p698
S'1601-1297'
p699
sS'194983'
p700
S'1794-908'
p701
sS'582439'
p702
S'1380-1577'
p703
sS'95081'
p704
S'1476-1772'
p705
sS'79240'
p706
S'1793-1065'
p707
sS'101457'
p708
S'1219-1915'
p709
sS'140826'
p710
S'866-1613'
p711
sS'1460883'
p712
S'827-1605'
p713
sS'126100'
p714
S'1794-890'
p715
sS'91946'
p716
S'656-1490'
p717
sS'404010'
p718
S'1150-1657'
p719
sS'13796'
p720
S'1471-1503'
p721
sS'111597'
p722
S'1617-802'
p723
sS'64324'
p724
S'1674-1235'
p725
sS'677164'
p726
S'563-1006'
p727
sS'168997'
p728
S'2012-879'
p729
sS'435269'
p730
S'2327-1287'
p731
sS'147919'
p732
S'1597-1381'
p733
sS'271816'
p734
S'1230-1621'
p735
sS'210883'
p736
S'2055-1699'
p737
sS'1715316'
p738
S'1492-622'
p739
sS'63729'
p740
S'1379-1797'
p741
sS'459195'
p742
S'1600-1302'
p743
sS'36559'
p744
S'1520-1778'
p745
sS'1967784'
p746
S'1612-1101'
p747
sS'111351'
p748
S'1197-1625'
p749
sS'321223'
p750
S'1376-1821'
p751
sS'113124'
p752
S'1652-1265'
p753
sS'6229'
p754
S'591-1380'
p755
sS'1967422'
p756
S'1353-1536'
p757
sS'35220'
p758
S'2836-1733'
p759
sS'897'
p760
S'1796-1062'
p761
sS'374124'
p762
S'1529-1053'
p763
sS'168207'
p764
S'1283-1028'
p765
sS'110039'
p766
S'1609-1192'
p767
sS'23989'
p768
S'1616-941'
p769
sS'480910'
p770
S'2906-1810'
p771
sS'1337641'
p772
S'1534-1610'
p773
sS'163125'
p774
S'1784-1339'
p775
sS'95194'
p776
S'1364-1493'
p777
sS'34952'
p778
S'839-1001'
p779
sS'271256'
p780
S'1408-1861'
p781
sS'7336'
p782
S'512-1364'
p783
sS'1962294'
p784
S'1547-1649'
p785
sS'37273'
p786
S'1481-1054'
p787
sS'90182'
p788
S'2236-1121'
p789
sS'1409813'
p790
S'1813-1369'
p791
sS'165965'
p792
S'1543-1053'
p793
sS'284071'
p794
S'1546-1053'
p795
sS'114665'
p796
S'2222-1327'
p797
sS'10212'
p798
S'1457-1501'
p799
sS'191937'
p800
S'3041-1837'
p801
sS'107763'
p802
S'1552-1489'
p803
sS'508924'
p804
S'1376-1759'
p805
sS'92011'
p806
S'1467-1698'
p807
sS'231565'
p808
S'1612-1009'
p809
sS'205683'
p810
S'1563-1052'
p811
sS'115505'
p812
S'1473-1874'
p813
sS'62067'
p814
S'2159-1807'
p815
sS'62038'
p816
S'670-1493'
p817
sS'86484'
p818
S'1540-1053'
p819
sS'1936352'
p820
S'1665-1409'
p821
sS'129483'
p822
S'1872-884'
p823
sS'67945'
p824
S'2214-1542'
p825
sS'471000'
p826
S'433-1280'
p827
sS'52129'
p828
S'1986-1690'
p829
sS'666562'
p830
S'426-1301'
p831
sS'15342'
p832
S'439-1021'
p833
sS'87751'
p834
S'1825-770'
p835
sS'636061'
p836
S'1377-1651'
p837
sS'763584'
p838
S'1596-1330'
p839
sS'5765'
p840
S'1825-1507'
p841
sS'760360'
p842
S'1603-1279'
p843
sS'18356'
p844
S'1603-1027'
p845
sS'129893'
p846
S'1337-1740'
p847
sS'300162'
p848
S'1605-1269'
p849
sS'59515'
p850
S'1631-1494'
p851
sS'167138'
p852
S'1646-620'
p853
sS'50803'
p854
S'2377-1129'
p855
sS'14440'
p856
S'1609-1203'
p857
sS'103472'
p858
S'551-1420'
p859
sS'415298'
p860
S'610-1185'
p861
sS'22656'
p862
S'1791-1148'
p863
sS'1990551'
p864
S'1853-896'
p865
sS'1517127'
p866
S'1455-1047'
p867
sS'61425'
p868
S'1979-1855'
p869
sS'312765'
p870
S'592-1380'
p871
sS'270190'
p872
S'1152-1001'
p873
sS'1965732'
p874
S'1880-1636'
p875
sS'1035999'
p876
S'1353-1538'
p877
sS'24684'
p878
S'1612-1055'
p879
sS'823946'
p880
S'1765-1837'
p881
sS'251347'
p882
S'1696-1614'
p883
sS'90717'
p884
S'1206-1645'
p885
sS'193832'
p886
S'1660-1486'
p887
sS'1686081'
p888
S'1192-1734'
p889
sS'155745'
p890
S'608-1305'
p891
sS'179722'
p892
S'1548-1502'
p893
sS'33368'
p894
S'1149-1668'
p895
sS'321281'
p896
S'1651-1265'
p897
sS'217929'
p898
S'1606-1560'
p899
sS'9036'
p900
S'1924-1384'
p901
sS'20405'
p902
S'1619-652'
p903
sS'6162'
p904
S'1518-1778'
p905
sS'10257'
p906
S'2208-1728'
p907
sS'173065'
p908
S'1515-1822'
p909
sS'1635'
p910
S'412-1338'
p911
sS'78457'
p912
S'600-1357'
p913
sS'43336'
p914
S'1513-1840'
p915
sS'81113'
p916
S'1820-1540'
p917
sS'114424'
p918
S'1617-568'
p919
sS'78296'
p920
S'2120-786'
p921
sS'583507'
p922
S'2213-1411'
p923
sS'33841'
p924
S'1345-1038'
p925
sS'925293'
p926
S'1529-1693'
p927
sS'366342'
p928
S'2226-1230'
p929
sS'164080'
p930
S'1641-422'
p931
sS'174155'
p932
S'1299-1594'
p933
sS'725816'
p934
S'2035-1534'
p935
sS'794715'
p936
S'1497-899'
p937
sS'89905'
p938
S'1446-1768'
p939
sS'140623'
p940
S'1123-1800'
p941
sS'45489'
p942
S'1542-1524'
p943
sS'191010'
p944
S'1545-1510'
p945
sS'297989'
p946
S'1678-1265'
p947
sS'190544'
p948
S'2271-866'
p949
sS'420878'
p950
S'735-1587'
p951
sS'336307'
p952
S'1304-1649'
p953
sS'222924'
p954
S'1232-1822'
p955
sS'126299'
p956
S'1130-1645'
p957
sS'126297'
p958
S'1407-1045'
p959
sS'80799'
p960
S'1764-1880'
p961
sS'72113'
p962
S'1503-1594'
p963
sS'309120'
p964
S'2060-1489'
p965
sS'260796'
p966
S'1810-771'
p967
sS'67731'
p968
S'1872-940'
p969
sS'140444'
p970
S'1503-1053'
p971
sS'49331'
p972
S'1217-1617'
p973
sS'236293'
p974
S'1916-1379'
p975
sS'22344'
p976
S'1793-772'
p977
sS'293124'
p978
S'1526-1517'
p979
sS'294184'
p980
S'940-995'
p981
sS'100567'
p982
S'1715-940'
p983
sS'70176'
p984
S'1758-1661'
p985
sS'199278'
p986
S'1999-772'
p987
sS'138270'
p988
S'1883-821'
p989
sS'105264'
p990
S'1230-1637'
p991
s.