(dp1
S'123925'
p2
S'1386-1468'
p3
sS'897962'
p4
S'804-1600'
p5
sS'1980123'
p6
S'1373-1041'
p7
sS'1634439'
p8
S'1528-1659'
p9
sS'49428'
p10
S'1610-1159'
p11
sS'295262'
p12
S'2274-1284'
p13
sS'35624'
p14
S'474-1012'
p15
sS'36668'
p16
S'1065-1645'
p17
sS'115950'
p18
S'2346-1288'
p19
sS'1238843'
p20
S'1148-1708'
p21
sS'1297561'
p22
S'1623-824'
p23
sS'24714'
p24
S'597-1371'
p25
sS'7519'
p26
S'408-1016'
p27
sS'2910'
p28
S'1343-1755'
p29
sS'199618'
p30
S'1825-1669'
p31
sS'41795'
p32
S'1562-1465'
p33
sS'227937'
p34
S'1092-995'
p35
sS'295562'
p36
S'1518-1778'
p37
sS'26934'
p38
S'717-952'
p39
sS'207150'
p40
S'1580-1400'
p41
sS'86406'
p42
S'1534-1693'
p43
sS'382210'
p44
S'2115-1543'
p45
sS'57934'
p46
S'1917-1333'
p47
sS'485051'
p48
S'1707-772'
p49
sS'337742'
p50
S'1636-771'
p51
sS'268102'
p52
S'1612-1105'
p53
sS'257337'
p54
S'1445-1647'
p55
sS'65652'
p56
S'612-1277'
p57
sS'120059'
p58
S'1534-1607'
p59
sS'788743'
p60
S'1918-888'
p61
sS'109473'
p62
S'2202-1879'
p63
sS'67256'
p64
S'1665-979'
p65
sS'3774'
p66
S'1445-1647'
p67
sS'130094'
p68
S'1549-872'
p69
sS'128581'
p70
S'1785-1324'
p71
sS'448638'
p72
S'1785-1307'
p73
sS'60139'
p74
S'1230-1622'
p75
sS'159744'
p76
S'1157-1729'
p77
sS'26724'
p78
S'1793-780'
p79
sS'1482686'
p80
S'1609-1194'
p81
sS'316746'
p82
S'1157-1729'
p83
sS'341627'
p84
S'1786-1292'
p85
sS'167230'
p86
S'704-1517'
p87
sS'16052'
p88
S'2301-1731'
p89
sS'31674'
p90
S'610-1284'
p91
sS'81333'
p92
S'1656-1479'
p93
sS'653663'
p94
S'1611-1265'
p95
sS'174109'
p96
S'1582-1895'
p97
sS'63656'
p98
S'2822-1796'
p99
sS'149410'
p100
S'2002-2396'
p101
sS'100010'
p102
S'1585-1384'
p103
sS'40330'
p104
S'1488-1530'
p105
sS'1938480'
p106
S'1012-993'
p107
sS'1526071'
p108
S'1617-883'
p109
sS'222589'
p110
S'1778-1933'
p111
sS'298392'
p112
S'1509-1447'
p113
sS'143316'
p114
S'2207-1736'
p115
sS'53733'
p116
S'1132-1789'
p117
sS'17039'
p118
S'1787-1238'
p119
sS'1570936'
p120
S'2120-1278'
p121
sS'39929'
p122
S'1156-1643'
p123
sS'1949595'
p124
S'1711-772'
p125
sS'22903'
p126
S'1520-1053'
p127
sS'47794'
p128
S'1579-1404'
p129
sS'526040'
p130
S'1993-996'
p131
sS'86148'
p132
S'1612-1068'
p133
sS'125582'
p134
S'2246-1283'
p135
sS'141128'
p136
S'603-1340'
p137
sS'239628'
p138
S'2118-1543'
p139
sS'511930'
p140
S'1794-706'
p141
sS'455522'
p142
S'1612-1076'
p143
sS'144058'
p144
S'459-1352'
p145
sS'143414'
p146
S'733-1079'
p147
sS'325972'
p148
S'1608-1224'
p149
sS'126835'
p150
S'1791-998'
p151
sS'1356428'
p152
S'1345-1577'
p153
sS'135968'
p154
S'1340-1580'
p155
sS'1954930'
p156
S'1773-1501'
p157
sS'574963'
p158
S'1793-786'
p159
sS'354786'
p160
S'1400-1515'
p161
sS'5136'
p162
S'838-1001'
p163
sS'299236'
p164
S'1737-1266'
p165
sS'121065'
p166
S'1550-1649'
p167
sS'106039'
p168
S'1645-787'
p169
sS'376793'
p170
S'1872-1514'
p171
sS'44762'
p172
S'1611-1129'
p173
sS'501564'
p174
S'1652-1554'
p175
sS'729293'
p176
S'1929-772'
p177
sS'103618'
p178
S'1515-1053'
p179
sS'163665'
p180
S'731-1539'
p181
sS'291142'
p182
S'602-1344'
p183
sS'358947'
p184
S'1160-1645'
p185
sS'65607'
p186
S'1264-1647'
p187
sS'248790'
p188
S'1684-964'
p189
sS'238898'
p190
S'1793-824'
p191
sS'26321'
p192
S'1794-844'
p193
sS'359067'
p194
S'1335-1754'
p195
sS'5229'
p196
S'1185-1936'
p197
sS'265707'
p198
S'606-1430'
p199
sS'1968617'
p200
S'1790-977'
p201
sS'196288'
p202
S'1682-772'
p203
sS'248226'
p204
S'1521-1648'
p205
sS'1974848'
p206
S'320-1011'
p207
sS'215516'
p208
S'2271-1334'
p209
sS'15143'
p210
S'1385-1744'
p211
sS'1442163'
p212
S'1528-1662'
p213
sS'264179'
p214
S'2207-1755'
p215
sS'39522'
p216
S'3094-1848'
p217
sS'958215'
p218
S'1609-1190'
p219
sS'779796'
p220
S'1568-1438'
p221
sS'222259'
p222
S'1612-1059'
p223
sS'305975'
p224
S'940-995'
p225
sS'1017951'
p226
S'1793-815'
p227
sS'1312933'
p228
S'1582-1353'
p229
sS'189858'
p230
S'2271-857'
p231
sS'270934'
p232
S'1542-1526'
p233
sS'14395'
p234
S'1203-1623'
p235
sS'176840'
p236
S'1440-1867'
p237
sS'818086'
p238
S'1746-1367'
p239
sS'652192'
p240
S'1469-1053'
p241
sS'261307'
p242
S'1330-1753'
p243
sS'1935888'
p244
S'1657-985'
p245
sS'34012'
p246
S'1704-772'
p247
sS'1412122'
p248
S'1917-1337'
p249
sS'832291'
p250
S'1228-1612'
p251
sS'481093'
p252
S'1525-1693'
p253
sS'1094305'
p254
S'1620-699'
p255
sS'138644'
p256
S'1609-1265'
p257
sS'330593'
p258
S'1916-1468'
p259
sS'209922'
p260
S'1653-362'
p261
sS'237857'
p262
S'1340-1580'
p263
sS'33114'
p264
S'363-1181'
p265
sS'126289'
p266
S'1757-1661'
p267
sS'1959759'
p268
S'1552-1490'
p269
sS'16683'
p270
S'1794-845'
p271
sS'80788'
p272
S'715-945'
p273
sS'153024'
p274
S'1135-1775'
p275
sS'13832'
p276
S'2207-1744'
p277
sS'77575'
p278
S'1631-1382'
p279
sS'727818'
p280
S'1688-772'
p281
sS'1177880'
p282
S'1153-1644'
p283
sS'271871'
p284
S'2005-1531'
p285
sS'107097'
p286
S'1614-1016'
p287
sS'196302'
p288
S'2000-880'
p289
sS'70290'
p290
S'1808-985'
p291
sS'204509'
p292
S'2369-1740'
p293
sS'1436199'
p294
S'1528-1650'
p295
sS'92491'
p296
S'1794-897'
p297
sS'14390'
p298
S'1882-827'
p299
sS'73729'
p300
S'664-1491'
p301
sS'784933'
p302
S'3246-1880'
p303
sS'6329'
p304
S'2305-1297'
p305
sS'1179102'
p306
S'1263-1647'
p307
sS'18484'
p308
S'519-1367'
p309
sS'1663175'
p310
S'1847-1516'
p311
sS'73473'
p312
S'1790-905'
p313
sS'304707'
p314
S'269-1036'
p315
sS'158019'
p316
S'2093-883'
p317
sS'191222'
p318
S'1407-1582'
p319
sS'31990'
p320
S'1612-1053'
p321
sS'406389'
p322
S'1644-1265'
p323
sS'594788'
p324
S'1586-1383'
p325
sS'363057'
p326
S'1504-1936'
p327
sS'33433'
p328
S'1879-844'
p329
sS'45336'
p330
S'1611-1061'
p331
sS'195344'
p332
S'1017-993'
p333
sS'218977'
p334
S'1803-772'
p335
sS'222041'
p336
S'1914-1551'
p337
sS'308360'
p338
S'438-1347'
p339
sS'75439'
p340
S'1402-1500'
p341
sS'433598'
p342
S'1794-676'
p343
sS'163439'
p344
S'1774-1610'
p345
sS'527173'
p346
S'1588-1372'
p347
sS'706'
p348
S'1647-771'
p349
sS'77024'
p350
S'1642-1490'
p351
sS'701211'
p352
S'1836-769'
p353
sS'20293'
p354
S'1756-986'
p355
sS'57927'
p356
S'1999-1273'
p357
sS'24020'
p358
S'2203-1865'
p359
sS'160582'
p360
S'1525-1517'
p361
sS'227356'
p362
S'1667-297'
p363
sS'101781'
p364
S'2227-1197'
p365
sS'1426719'
p366
S'574-1006'
p367
sS'1134'
p368
S'1350-1574'
p369
sS'1970284'
p370
S'1263-1024'
p371
sS'24205'
p372
S'2900-1809'
p373
sS'32200'
p374
S'1971-995'
p375
sS'411929'
p376
S'1677-1364'
p377
sS'251645'
p378
S'1823-1268'
p379
sS'972663'
p380
S'800-1599'
p381
sS'576155'
p382
S'1316-1650'
p383
sS'504580'
p384
S'2205-1803'
p385
sS'156467'
p386
S'330-1011'
p387
sS'411369'
p388
S'2214-1719'
p389
sS'106638'
p390
S'1618-671'
p391
sS'179492'
p392
S'1743-1660'
p393
sS'296634'
p394
S'1781-1267'
p395
sS'301451'
p396
S'1134-1780'
p397
sS'730191'
p398
S'1426-1645'
p399
sS'1067393'
p400
S'1680-967'
p401
sS'105337'
p402
S'535-1008'
p403
sS'334930'
p404
S'1416-1492'
p405
sS'345480'
p406
S'1611-1026'
p407
sS'442197'
p408
S'1763-1367'
p409
sS'224742'
p410
S'1791-953'
p411
sS'112902'
p412
S'2203-1853'
p413
sS'222907'
p414
S'1834-900'
p415
sS'127696'
p416
S'1833-1509'
p417
sS'160364'
p418
S'2301-1332'
p419
sS'145703'
p420
S'1338-1651'
p421
sS'125559'
p422
S'1299-1032'
p423
sS'26526'
p424
S'2663-1779'
p425
sS'165391'
p426
S'2122-1403'
p427
sS'28176'
p428
S'1510-1053'
p429
sS'278573'
p430
S'531-1008'
p431
sS'164401'
p432
S'1900-1678'
p433
sS'90089'
p434
S'1149-1706'
p435
sS'83951'
p436
S'1407-1045'
p437
sS'72572'
p438
S'1406-1485'
p439
sS'228568'
p440
S'303-1011'
p441
sS'317237'
p442
S'440-1089'
p443
sS'204474'
p444
S'1261-1647'
p445
sS'428298'
p446
S'1552-1783'
p447
sS'1453603'
p448
S'1138-1000'
p449
sS'719789'
p450
S'1488-1054'
p451
sS'738505'
p452
S'1723-779'
p453
sS'1350145'
p454
S'2045-880'
p455
sS'181694'
p456
S'1872-943'
p457
sS'309811'
p458
S'1555-1052'
p459
sS'1283058'
p460
S'510-1010'
p461
sS'256325'
p462
S'1640-425'
p463
sS'293819'
p464
S'2207-1746'
p465
sS'1936002'
p466
S'1321-1650'
p467
sS'82704'
p468
S'1022-993'
p469
sS'26596'
p470
S'2207-1735'
p471
sS'30401'
p472
S'2100-884'
p473
sS'20122'
p474
S'1646-994'
p475
sS'76821'
p476
S'1643-412'
p477
sS'1884815'
p478
S'1386-1043'
p479
sS'132930'
p480
S'693-1508'
p481
sS'315165'
p482
S'425-1342'
p483
sS'1980773'
p484
S'1401-1045'
p485
sS'190827'
p486
S'1696-1266'
p487
sS'181441'
p488
S'1914-1556'
p489
sS'260546'
p490
S'1911-1270'
p491
sS'41773'
p492
S'439-1027'
p493
sS'172993'
p494
S'1794-1367'
p495
sS'16754'
p496
S'1784-1325'
p497
sS'77617'
p498
S'1636-779'
p499
sS'806587'
p500
S'1149-1682'
p501
sS'75'
p502
S'2050-1698'
p503
sS'850328'
p504
S'1433-1048'
p505
sS'28034'
p506
S'1566-1052'
p507
sS'114716'
p508
S'1149-1693'
p509
sS'87054'
p510
S'1541-1649'
p511
sS'240996'
p512
S'811-1003'
p513
sS'1564667'
p514
S'630-1004'
p515
sS'1405040'
p516
S'1786-1270'
p517
sS'64571'
p518
S'1794-875'
p519
sS'12486'
p520
S'1793-772'
p521
sS'562784'
p522
S'1148-1711'
p523
sS'309071'
p524
S'1844-769'
p525
sS'15518'
p526
S'1584-1493'
p527
sS'1981037'
p528
S'1609-1203'
p529
sS'32131'
p530
S'1921-1383'
p531
sS'11667'
p532
S'596-1382'
p533
sS'1958346'
p534
S'1794-884'
p535
sS'1054215'
p536
S'1376-1819'
p537
sS'45430'
p538
S'1617-810'
p539
sS'216476'
p540
S'1786-1267'
p541
sS'8650'
p542
S'734-1559'
p543
sS'174694'
p544
S'1785-1296'
p545
sS'315940'
p546
S'1250-1742'
p547
sS'66019'
p548
S'295-1011'
p549
sS'50886'
p550
S'1350-1568'
p551
sS'468365'
p552
S'506-1275'
p553
sS'999'
p554
S'2147-2000'
p555
sS'240221'
p556
S'1413-1763'
p557
sS'639658'
p558
S'1167-1731'
p559
sS'1995728'
p560
S'978-994'
p561
sS'221099'
p562
S'1660-983'
p563
sS'254188'
p564
S'1625-753'
p565
sS'108212'
p566
S'1595-1332'
p567
sS'469174'
p568
S'1387-1615'
p569
sS'85994'
p570
S'612-1448'
p571
sS'358441'
p572
S'1292-1030'
p573
sS'293713'
p574
S'2113-773'
p575
sS'367108'
p576
S'2452-892'
p577
sS'126771'
p578
S'712-1524'
p579
sS'10753'
p580
S'488-1360'
p581
sS'38203'
p582
S'1612-1090'
p583
sS'112909'
p584
S'536-1275'
p585
sS'35350'
p586
S'1126-998'
p587
sS'55735'
p588
S'1384-1735'
p589
sS'1936049'
p590
S'2365-1740'
p591
sS'1611542'
p592
S'1150-1645'
p593
sS'1946001'
p594
S'1716-772'
p595
sS'107225'
p596
S'2038-1697'
p597
sS'307753'
p598
S'1464-1649'
p599
sS'64206'
p600
S'1440-1588'
p601
sS'76989'
p602
S'1272-1648'
p603
sS'36990'
p604
S'2032-1275'
p605
sS'8448'
p606
S'1230-1629'
p607
sS'435026'
p608
S'1821-1268'
p609
sS'3471'
p610
S'1653-1265'
p611
sS'1073960'
p612
S'1596-1325'
p613
sS'37434'
p614
S'2344-1288'
p615
sS'251378'
p616
S'1617-828'
p617
sS'20590'
p618
S'1618-671'
p619
sS'84183'
p620
S'1258-1023'
p621
sS'4490'
p622
S'1436-1497'
p623
sS'299998'
p624
S'1315-993'
p625
sS'808255'
p626
S'2295-1821'
p627
sS'319566'
p628
S'1656-1489'
p629
sS'1392446'
p630
S'339-1125'
p631
sS'406255'
p632
S'1670-287'
p633
sS'81698'
p634
S'1643-1662'
p635
sS'334743'
p636
S'1572-1053'
p637
sS'42533'
p638
S'1132-1789'
p639
sS'284500'
p640
S'1852-452'
p641
sS'11518'
p642
S'440-1199'
p643
sS'156270'
p644
S'1707-1705'
p645
sS'161220'
p646
S'1577-1676'
p647
sS'146350'
p648
S'1294-1595'
p649
sS'910403'
p650
S'1656-1366'
p651
sS'897948'
p652
S'1508-1649'
p653
sS'982803'
p654
S'2291-1285'
p655
sS'34292'
p656
S'2019-1979'
p657
sS'69293'
p658
S'1115-1645'
p659
sS'40267'
p660
S'698-1004'
p661
sS'1608585'
p662
S'1366-1500'
p663
sS'646626'
p664
S'2012-1089'
p665
sS'222232'
p666
S'1765-1854'
p667
sS'214340'
p668
S'2174-1550'
p669
sS'259068'
p670
S'1619-603'
p671
sS'331392'
p672
S'2356-1844'
p673
sS'45964'
p674
S'1263-1744'
p675
sS'101'
p676
S'1765-1545'
p677
sS'64585'
p678
S'3119-1854'
p679
sS'1968552'
p680
S'1884-813'
p681
sS'98982'
p682
S'1864-1014'
p683
sS'205146'
p684
S'433-1019'
p685
sS'193555'
p686
S'1653-988'
p687
sS'1139290'
p688
S'2032-1395'
p689
sS'230966'
p690
S'1775-1651'
p691
sS'507761'
p692
S'1192-1009'
p693
sS'153504'
p694
S'1627-1265'
p695
sS'152999'
p696
S'1552-1489'
p697
sS'203661'
p698
S'503-1363'
p699
sS'8061'
p700
S'1601-1292'
p701
sS'194983'
p702
S'1794-908'
p703
sS'582439'
p704
S'1382-1577'
p705
sS'95081'
p706
S'1482-1773'
p707
sS'79240'
p708
S'1793-1073'
p709
sS'101457'
p710
S'1218-1915'
p711
sS'140826'
p712
S'862-1612'
p713
sS'1460883'
p714
S'824-1604'
p715
sS'126100'
p716
S'1794-888'
p717
sS'91946'
p718
S'660-1491'
p719
sS'404010'
p720
S'1150-1654'
p721
sS'13796'
p722
S'1475-1503'
p723
sS'111597'
p724
S'1617-801'
p725
sS'64324'
p726
S'1674-1240'
p727
sS'677164'
p728
S'571-1006'
p729
sS'168997'
p730
S'2016-879'
p731
sS'435269'
p732
S'2339-1288'
p733
sS'147919'
p734
S'1600-1381'
p735
sS'271816'
p736
S'1230-1620'
p737
sS'210883'
p738
S'2062-1700'
p739
sS'1715316'
p740
S'1484-624'
p741
sS'63729'
p742
S'1379-1801'
p743
sS'459195'
p744
S'1601-1296'
p745
sS'36559'
p746
S'1521-1778'
p747
sS'1967784'
p748
S'1612-1094'
p749
sS'111351'
p750
S'1199-1625'
p751
sS'321223'
p752
S'1375-1825'
p753
sS'113124'
p754
S'1645-1265'
p755
sS'6229'
p756
S'589-1380'
p757
sS'1967422'
p758
S'1353-1536'
p759
sS'35220'
p760
S'2834-1728'
p761
sS'897'
p762
S'1798-1062'
p763
sS'374124'
p764
S'1525-1053'
p765
sS'168207'
p766
S'1289-1029'
p767
sS'110039'
p768
S'1609-1191'
p769
sS'23989'
p770
S'1616-941'
p771
sS'480910'
p772
S'2911-1811'
p773
sS'1337641'
p774
S'1534-1609'
p775
sS'163125'
p776
S'1784-1338'
p777
sS'95194'
p778
S'1369-1487'
p779
sS'34952'
p780
S'836-1001'
p781
sS'271256'
p782
S'1411-1861'
p783
sS'7336'
p784
S'513-1358'
p785
sS'1962294'
p786
S'1544-1649'
p787
sS'37273'
p788
S'1474-1053'
p789
sS'90182'
p790
S'2232-1121'
p791
sS'1409813'
p792
S'1812-1369'
p793
sS'165965'
p794
S'1548-1053'
p795
sS'284071'
p796
S'1548-1053'
p797
sS'114665'
p798
S'2222-1334'
p799
sS'10212'
p800
S'1459-1501'
p801
sS'191937'
p802
S'3047-1838'
p803
sS'107763'
p804
S'1552-1490'
p805
sS'508924'
p806
S'1381-1759'
p807
sS'92011'
p808
S'1473-1697'
p809
sS'231565'
p810
S'1613-1007'
p811
sS'205683'
p812
S'1566-1052'
p813
sS'115505'
p814
S'1473-1874'
p815
sS'62067'
p816
S'2157-1807'
p817
sS'62038'
p818
S'668-1492'
p819
sS'86484'
p820
S'1534-1053'
p821
sS'1936352'
p822
S'1661-1409'
p823
sS'129483'
p824
S'1872-885'
p825
sS'67945'
p826
S'2215-1540'
p827
sS'471000'
p828
S'435-1275'
p829
sS'52129'
p830
S'1984-1690'
p831
sS'666562'
p832
S'427-1298'
p833
sS'15342'
p834
S'439-1021'
p835
sS'87751'
p836
S'1823-770'
p837
sS'636061'
p838
S'1376-1651'
p839
sS'763584'
p840
S'1595-1336'
p841
sS'5765'
p842
S'1821-1507'
p843
sS'760360'
p844
S'1604-1277'
p845
sS'18356'
p846
S'1605-1025'
p847
sS'129893'
p848
S'1337-1740'
p849
sS'300162'
p850
S'1604-1273'
p851
sS'59515'
p852
S'1629-1493'
p853
sS'167138'
p854
S'1645-620'
p855
sS'50803'
p856
S'2379-1130'
p857
sS'14440'
p858
S'1609-1199'
p859
sS'103472'
p860
S'547-1419'
p861
sS'415298'
p862
S'610-1181'
p863
sS'22656'
p864
S'1791-1153'
p865
sS'1990551'
p866
S'1850-897'
p867
sS'1517127'
p868
S'1456-1047'
p869
sS'61425'
p870
S'1979-1859'
p871
sS'312765'
p872
S'595-1380'
p873
sS'270190'
p874
S'1146-1000'
p875
sS'1965732'
p876
S'1881-1636'
p877
sS'1035999'
p878
S'1353-1535'
p879
sS'24684'
p880
S'1612-1056'
p881
sS'823946'
p882
S'1765-1833'
p883
sS'251347'
p884
S'1691-1613'
p885
sS'90717'
p886
S'1204-1645'
p887
sS'193832'
p888
S'1656-1485'
p889
sS'1686081'
p890
S'1191-1734'
p891
sS'155745'
p892
S'609-1298'
p893
sS'179722'
p894
S'1549-1498'
p895
sS'33368'
p896
S'1149-1673'
p897
sS'321281'
p898
S'1655-1265'
p899
sS'217929'
p900
S'1599-1560'
p901
sS'9036'
p902
S'1924-1383'
p903
sS'20405'
p904
S'1619-654'
p905
sS'6162'
p906
S'1518-1782'
p907
sS'10257'
p908
S'2208-1722'
p909
sS'173065'
p910
S'1515-1814'
p911
sS'1635'
p912
S'412-1338'
p913
sS'78457'
p914
S'599-1359'
p915
sS'43336'
p916
S'1515-1824'
p917
sS'81113'
p918
S'1825-1539'
p919
sS'114424'
p920
S'1618-575'
p921
sS'78296'
p922
S'2122-790'
p923
sS'583507'
p924
S'2217-1412'
p925
sS'33841'
p926
S'1348-1038'
p927
sS'925293'
p928
S'1531-1693'
p929
sS'366342'
p930
S'2226-1232'
p931
sS'164080'
p932
S'1642-416'
p933
sS'174155'
p934
S'1296-1595'
p935
sS'725816'
p936
S'2037-1534'
p937
sS'794715'
p938
S'1498-897'
p939
sS'89905'
p940
S'1444-1768'
p941
sS'140623'
p942
S'1116-1799'
p943
sS'45489'
p944
S'1544-1515'
p945
sS'191010'
p946
S'1546-1507'
p947
sS'297989'
p948
S'1676-1265'
p949
sS'190544'
p950
S'2271-872'
p951
sS'420878'
p952
S'729-1586'
p953
sS'336307'
p954
S'1312-1650'
p955
sS'222924'
p956
S'1234-1822'
p957
sS'126299'
p958
S'1134-1645'
p959
sS'126297'
p960
S'1403-1045'
p961
sS'80799'
p962
S'1764-1888'
p963
sS'72113'
p964
S'1506-1594'
p965
sS'309120'
p966
S'2060-1495'
p967
sS'260796'
p968
S'1811-771'
p969
sS'67731'
p970
S'1872-944'
p971
sS'140444'
p972
S'1507-1053'
p973
sS'49331'
p974
S'1211-1620'
p975
sS'236293'
p976
S'1916-1379'
p977
sS'22344'
p978
S'1793-772'
p979
sS'293124'
p980
S'1525-1517'
p981
sS'294184'
p982
S'938-995'
p983
sS'100567'
p984
S'1718-938'
p985
sS'70176'
p986
S'1762-1662'
p987
sS'199278'
p988
S'2010-772'
p989
sS'138270'
p990
S'1882-823'
p991
sS'105264'
p992
S'1230-1639'
p993
s.