(dp1
S'123925'
p2
S'1384-1471'
p3
sS'897962'
p4
S'808-1601'
p5
sS'1980123'
p6
S'1367-1041'
p7
sS'1634439'
p8
S'1527-1664'
p9
sS'49428'
p10
S'1610-1165'
p11
sS'295262'
p12
S'2276-1284'
p13
sS'35624'
p14
S'465-1014'
p15
sS'36668'
p16
S'1062-1645'
p17
sS'115950'
p18
S'2342-1288'
p19
sS'1238843'
p20
S'1148-1709'
p21
sS'1297561'
p22
S'1623-824'
p23
sS'24714'
p24
S'598-1367'
p25
sS'7519'
p26
S'396-1015'
p27
sS'2910'
p28
S'1337-1754'
p29
sS'199618'
p30
S'1826-1669'
p31
sS'227937'
p32
S'1087-994'
p33
sS'295562'
p34
S'1518-1778'
p35
sS'26934'
p36
S'717-956'
p37
sS'207150'
p38
S'1577-1411'
p39
sS'86406'
p40
S'1539-1693'
p41
sS'382210'
p42
S'2118-1544'
p43
sS'57934'
p44
S'1917-1332'
p45
sS'485051'
p46
S'1702-772'
p47
sS'337742'
p48
S'1635-771'
p49
sS'268102'
p50
S'1612-1093'
p51
sS'257337'
p52
S'1450-1647'
p53
sS'65652'
p54
S'611-1271'
p55
sS'120059'
p56
S'1534-1609'
p57
sS'788743'
p58
S'1909-889'
p59
sS'109473'
p60
S'2202-1887'
p61
sS'67256'
p62
S'1660-983'
p63
sS'3774'
p64
S'1436-1646'
p65
sS'130094'
p66
S'1548-872'
p67
sS'128581'
p68
S'1785-1316'
p69
sS'448638'
p70
S'1785-1311'
p71
sS'60139'
p72
S'1230-1622'
p73
sS'159744'
p74
S'1156-1729'
p75
sS'26724'
p76
S'1793-779'
p77
sS'1482686'
p78
S'1609-1189'
p79
sS'316746'
p80
S'1151-1729'
p81
sS'341627'
p82
S'1786-1287'
p83
sS'167230'
p84
S'706-1519'
p85
sS'16052'
p86
S'2301-1731'
p87
sS'31674'
p88
S'611-1286'
p89
sS'81333'
p90
S'1656-1475'
p91
sS'653663'
p92
S'1605-1265'
p93
sS'174109'
p94
S'1585-1896'
p95
sS'63656'
p96
S'2813-1795'
p97
sS'149410'
p98
S'2002-2396'
p99
sS'100010'
p100
S'1583-1391'
p101
sS'40330'
p102
S'1485-1537'
p103
sS'1938480'
p104
S'1005-993'
p105
sS'1526071'
p106
S'1617-883'
p107
sS'222589'
p108
S'1770-1931'
p109
sS'298392'
p110
S'1506-1446'
p111
sS'143316'
p112
S'2208-1726'
p113
sS'53733'
p114
S'1131-1792'
p115
sS'17039'
p116
S'1787-1244'
p117
sS'1570936'
p118
S'2126-1279'
p119
sS'39929'
p120
S'1163-1640'
p121
sS'1949595'
p122
S'1705-772'
p123
sS'22903'
p124
S'1522-1053'
p125
sS'47794'
p126
S'1579-1404'
p127
sS'526040'
p128
S'1986-996'
p129
sS'86148'
p130
S'1612-1063'
p131
sS'125582'
p132
S'2241-1282'
p133
sS'141128'
p134
S'602-1343'
p135
sS'239628'
p136
S'2113-1543'
p137
sS'511930'
p138
S'1794-704'
p139
sS'455522'
p140
S'1612-1066'
p141
sS'144058'
p142
S'459-1352'
p143
sS'143414'
p144
S'732-1069'
p145
sS'325972'
p146
S'1608-1228'
p147
sS'126835'
p148
S'1792-1005'
p149
sS'1356428'
p150
S'1347-1576'
p151
sS'135968'
p152
S'1343-1579'
p153
sS'1954930'
p154
S'1782-1502'
p155
sS'574963'
p156
S'1793-787'
p157
sS'354786'
p158
S'1400-1515'
p159
sS'5136'
p160
S'835-1001'
p161
sS'299236'
p162
S'1731-1266'
p163
sS'121065'
p164
S'1558-1650'
p165
sS'106039'
p166
S'1644-786'
p167
sS'376793'
p168
S'1874-1514'
p169
sS'44762'
p170
S'1611-1137'
p171
sS'501564'
p172
S'1652-1549'
p173
sS'218884'
p174
S'1623-619'
p175
sS'729293'
p176
S'1927-772'
p177
sS'103618'
p178
S'1516-1053'
p179
sS'163665'
p180
S'736-1543'
p181
sS'291142'
p182
S'602-1345'
p183
sS'358947'
p184
S'1160-1645'
p185
sS'65607'
p186
S'1257-1647'
p187
sS'248790'
p188
S'1679-968'
p189
sS'238898'
p190
S'1793-823'
p191
sS'26321'
p192
S'1794-837'
p193
sS'359067'
p194
S'1330-1753'
p195
sS'5229'
p196
S'1187-1936'
p197
sS'265707'
p198
S'605-1427'
p199
sS'1968617'
p200
S'1790-974'
p201
sS'196288'
p202
S'1679-772'
p203
sS'248226'
p204
S'1530-1648'
p205
sS'1974848'
p206
S'324-1011'
p207
sS'215516'
p208
S'2266-1334'
p209
sS'15143'
p210
S'1385-1744'
p211
sS'1442163'
p212
S'1528-1653'
p213
sS'264179'
p214
S'2206-1760'
p215
sS'39522'
p216
S'3080-1845'
p217
sS'958215'
p218
S'1610-1184'
p219
sS'779796'
p220
S'1570-1434'
p221
sS'222259'
p222
S'1612-1056'
p223
sS'305975'
p224
S'949-995'
p225
sS'1017951'
p226
S'1793-814'
p227
sS'1312933'
p228
S'1592-1353'
p229
sS'189858'
p230
S'2271-864'
p231
sS'270934'
p232
S'1541-1530'
p233
sS'14395'
p234
S'1196-1626'
p235
sS'176840'
p236
S'1451-1869'
p237
sS'818086'
p238
S'1739-1367'
p239
sS'652192'
p240
S'1460-1052'
p241
sS'261307'
p242
S'1327-1753'
p243
sS'1935888'
p244
S'1651-990'
p245
sS'34012'
p246
S'1705-772'
p247
sS'1412122'
p248
S'1917-1340'
p249
sS'832291'
p250
S'1229-1612'
p251
sS'481093'
p252
S'1525-1693'
p253
sS'1094305'
p254
S'1620-692'
p255
sS'138644'
p256
S'1615-1265'
p257
sS'330593'
p258
S'1916-1462'
p259
sS'209922'
p260
S'1654-355'
p261
sS'237857'
p262
S'1336-1583'
p263
sS'33114'
p264
S'365-1185'
p265
sS'126289'
p266
S'1765-1662'
p267
sS'1959759'
p268
S'1553-1485'
p269
sS'16683'
p270
S'1794-840'
p271
sS'80788'
p272
S'716-948'
p273
sS'153024'
p274
S'1134-1781'
p275
sS'13832'
p276
S'2207-1744'
p277
sS'77575'
p278
S'1633-1382'
p279
sS'727818'
p280
S'1684-772'
p281
sS'1177880'
p282
S'1152-1645'
p283
sS'271871'
p284
S'2012-1532'
p285
sS'107097'
p286
S'1614-1016'
p287
sS'196302'
p288
S'2006-880'
p289
sS'70290'
p290
S'1806-985'
p291
sS'204509'
p292
S'2360-1739'
p293
sS'1436199'
p294
S'1531-1630'
p295
sS'92491'
p296
S'1794-894'
p297
sS'14390'
p298
S'1881-834'
p299
sS'73729'
p300
S'670-1493'
p301
sS'784933'
p302
S'3256-1882'
p303
sS'6329'
p304
S'2305-1302'
p305
sS'1179102'
p306
S'1279-1648'
p307
sS'18484'
p308
S'518-1367'
p309
sS'1663175'
p310
S'1847-1518'
p311
sS'73473'
p312
S'1789-905'
p313
sS'304707'
p314
S'269-1035'
p315
sS'158019'
p316
S'2082-883'
p317
sS'191222'
p318
S'1403-1581'
p319
sS'31990'
p320
S'1612-1047'
p321
sS'406389'
p322
S'1635-1265'
p323
sS'594788'
p324
S'1583-1393'
p325
sS'363057'
p326
S'1504-1936'
p327
sS'33433'
p328
S'1879-842'
p329
sS'45336'
p330
S'1608-1060'
p331
sS'195344'
p332
S'1011-993'
p333
sS'218977'
p334
S'1804-772'
p335
sS'222041'
p336
S'1914-1544'
p337
sS'308360'
p338
S'440-1347'
p339
sS'75439'
p340
S'1401-1507'
p341
sS'433598'
p342
S'1794-676'
p343
sS'163439'
p344
S'1774-1611'
p345
sS'706'
p346
S'1645-771'
p347
sS'77024'
p348
S'1647-1488'
p349
sS'701211'
p350
S'1834-769'
p351
sS'20293'
p352
S'1753-986'
p353
sS'57927'
p354
S'2000-1273'
p355
sS'24020'
p356
S'2202-1869'
p357
sS'160582'
p358
S'1527-1517'
p359
sS'227356'
p360
S'1665-305'
p361
sS'101781'
p362
S'2227-1203'
p363
sS'1426719'
p364
S'572-1006'
p365
sS'1134'
p366
S'1350-1570'
p367
sS'1970284'
p368
S'1260-1023'
p369
sS'24205'
p370
S'2894-1808'
p371
sS'32200'
p372
S'1965-994'
p373
sS'411929'
p374
S'1678-1365'
p375
sS'251645'
p376
S'1811-1268'
p377
sS'972663'
p378
S'805-1600'
p379
sS'576155'
p380
S'1333-1651'
p381
sS'504580'
p382
S'2205-1802'
p383
sS'156467'
p384
S'329-1011'
p385
sS'411369'
p386
S'2217-1719'
p387
sS'106638'
p388
S'1618-670'
p389
sS'179492'
p390
S'1752-1661'
p391
sS'296634'
p392
S'1773-1267'
p393
sS'301451'
p394
S'1136-1774'
p395
sS'730191'
p396
S'1429-1645'
p397
sS'1067393'
p398
S'1677-969'
p399
sS'105337'
p400
S'546-1007'
p401
sS'334930'
p402
S'1415-1492'
p403
sS'345480'
p404
S'1611-1021'
p405
sS'442197'
p406
S'1771-1367'
p407
sS'224742'
p408
S'1791-951'
p409
sS'112902'
p410
S'2203-1852'
p411
sS'222907'
p412
S'1836-900'
p413
sS'127696'
p414
S'1828-1508'
p415
sS'160364'
p416
S'2301-1331'
p417
sS'145703'
p418
S'1342-1651'
p419
sS'125559'
p420
S'1311-1034'
p421
sS'26526'
p422
S'2653-1778'
p423
sS'165391'
p424
S'2115-1402'
p425
sS'28176'
p426
S'1518-1053'
p427
sS'278573'
p428
S'521-1009'
p429
sS'164401'
p430
S'1905-1679'
p431
sS'90089'
p432
S'1149-1707'
p433
sS'83951'
p434
S'1404-1045'
p435
sS'72572'
p436
S'1410-1477'
p437
sS'228568'
p438
S'307-1011'
p439
sS'317237'
p440
S'440-1095'
p441
sS'204474'
p442
S'1263-1647'
p443
sS'428298'
p444
S'1554-1783'
p445
sS'1453603'
p446
S'1131-999'
p447
sS'719789'
p448
S'1485-1054'
p449
sS'738505'
p450
S'1724-779'
p451
sS'1350145'
p452
S'2035-880'
p453
sS'181694'
p454
S'1871-950'
p455
sS'309811'
p456
S'1557-1052'
p457
sS'1283058'
p458
S'517-1009'
p459
sS'256325'
p460
S'1638-432'
p461
sS'293819'
p462
S'2207-1746'
p463
sS'1936002'
p464
S'1329-1651'
p465
sS'82704'
p466
S'1014-993'
p467
sS'26596'
p468
S'2207-1737'
p469
sS'30401'
p470
S'2103-884'
p471
sS'20122'
p472
S'1640-998'
p473
sS'76821'
p474
S'1646-401'
p475
sS'1884815'
p476
S'1387-1043'
p477
sS'132930'
p478
S'691-1507'
p479
sS'315165'
p480
S'423-1342'
p481
sS'1980773'
p482
S'1399-1044'
p483
sS'190827'
p484
S'1696-1266'
p485
sS'181441'
p486
S'1914-1561'
p487
sS'260546'
p488
S'1905-1270'
p489
sS'41773'
p490
S'439-1020'
p491
sS'172993'
p492
S'1795-1367'
p493
sS'16754'
p494
S'1784-1331'
p495
sS'77617'
p496
S'1635-779'
p497
sS'806587'
p498
S'1149-1681'
p499
sS'75'
p500
S'2054-1699'
p501
sS'850328'
p502
S'1423-1047'
p503
sS'28034'
p504
S'1568-1052'
p505
sS'114716'
p506
S'1149-1693'
p507
sS'87054'
p508
S'1535-1649'
p509
sS'240996'
p510
S'819-1002'
p511
sS'1564667'
p512
S'623-1003'
p513
sS'955828'
p514
S'713-935'
p515
sS'1405040'
p516
S'1786-1275'
p517
sS'64571'
p518
S'1794-874'
p519
sS'12486'
p520
S'1793-772'
p521
sS'562784'
p522
S'1148-1710'
p523
sS'309071'
p524
S'1842-769'
p525
sS'15518'
p526
S'1583-1493'
p527
sS'1981037'
p528
S'1609-1208'
p529
sS'32131'
p530
S'1920-1383'
p531
sS'11667'
p532
S'596-1389'
p533
sS'1958346'
p534
S'1794-883'
p535
sS'1054215'
p536
S'1376-1819'
p537
sS'45430'
p538
S'1617-812'
p539
sS'216476'
p540
S'1786-1267'
p541
sS'8650'
p542
S'735-1552'
p543
sS'174694'
p544
S'1785-1299'
p545
sS'315940'
p546
S'1245-1741'
p547
sS'66019'
p548
S'302-1011'
p549
sS'50886'
p550
S'1348-1575'
p551
sS'468365'
p552
S'503-1275'
p553
sS'999'
p554
S'2136-1998'
p555
sS'240221'
p556
S'1412-1763'
p557
sS'639658'
p558
S'1163-1730'
p559
sS'1995728'
p560
S'979-994'
p561
sS'221099'
p562
S'1654-987'
p563
sS'254188'
p564
S'1625-755'
p565
sS'108212'
p566
S'1596-1326'
p567
sS'469174'
p568
S'1387-1616'
p569
sS'85994'
p570
S'611-1444'
p571
sS'358441'
p572
S'1284-1028'
p573
sS'293713'
p574
S'2115-773'
p575
sS'367108'
p576
S'2450-892'
p577
sS'126771'
p578
S'709-1521'
p579
sS'10753'
p580
S'483-1359'
p581
sS'38203'
p582
S'1612-1102'
p583
sS'112909'
p584
S'539-1275'
p585
sS'35350'
p586
S'1139-1000'
p587
sS'55735'
p588
S'1384-1736'
p589
sS'1936049'
p590
S'2377-1741'
p591
sS'1611542'
p592
S'1150-1645'
p593
sS'1946001'
p594
S'1715-772'
p595
sS'107225'
p596
S'2036-1697'
p597
sS'307753'
p598
S'1470-1649'
p599
sS'64206'
p600
S'1441-1588'
p601
sS'76989'
p602
S'1266-1647'
p603
sS'36990'
p604
S'2028-1275'
p605
sS'8448'
p606
S'1230-1628'
p607
sS'435026'
p608
S'1819-1268'
p609
sS'3471'
p610
S'1659-1265'
p611
sS'1073960'
p612
S'1598-1313'
p613
sS'37434'
p614
S'2341-1288'
p615
sS'251378'
p616
S'1617-836'
p617
sS'20590'
p618
S'1618-670'
p619
sS'84183'
p620
S'1251-1021'
p621
sS'4490'
p622
S'1445-1499'
p623
sS'299998'
p624
S'1315-994'
p625
sS'808255'
p626
S'2290-1821'
p627
sS'319566'
p628
S'1655-1497'
p629
sS'1392446'
p630
S'339-1122'
p631
sS'406255'
p632
S'1667-296'
p633
sS'81698'
p634
S'1643-1657'
p635
sS'334743'
p636
S'1563-1052'
p637
sS'42533'
p638
S'1134-1783'
p639
sS'284500'
p640
S'1851-455'
p641
sS'11518'
p642
S'440-1197'
p643
sS'156270'
p644
S'1716-1707'
p645
sS'161220'
p646
S'1577-1676'
p647
sS'146350'
p648
S'1299-1594'
p649
sS'910403'
p650
S'1655-1367'
p651
sS'897948'
p652
S'1503-1649'
p653
sS'982803'
p654
S'2283-1285'
p655
sS'34292'
p656
S'2014-1978'
p657
sS'69293'
p658
S'1110-1645'
p659
sS'40267'
p660
S'700-1005'
p661
sS'1608585'
p662
S'1372-1499'
p663
sS'646626'
p664
S'2012-1094'
p665
sS'222232'
p666
S'1765-1863'
p667
sS'214340'
p668
S'2174-1550'
p669
sS'259068'
p670
S'1619-604'
p671
sS'331392'
p672
S'2356-1847'
p673
sS'45964'
p674
S'1261-1743'
p675
sS'101'
p676
S'1761-1545'
p677
sS'64585'
p678
S'3128-1855'
p679
sS'1968552'
p680
S'1885-807'
p681
sS'98982'
p682
S'1864-1013'
p683
sS'205146'
p684
S'443-1019'
p685
sS'193555'
p686
S'1649-992'
p687
sS'1139290'
p688
S'2026-1395'
p689
sS'230966'
p690
S'1775-1645'
p691
sS'507761'
p692
S'1186-1008'
p693
sS'153504'
p694
S'1632-1265'
p695
sS'152999'
p696
S'1550-1495'
p697
sS'203661'
p698
S'510-1364'
p699
sS'8061'
p700
S'1602-1285'
p701
sS'194983'
p702
S'1794-908'
p703
sS'582439'
p704
S'1385-1577'
p705
sS'95081'
p706
S'1489-1774'
p707
sS'79240'
p708
S'1793-1083'
p709
sS'101457'
p710
S'1217-1915'
p711
sS'140826'
p712
S'856-1611'
p713
sS'1460883'
p714
S'819-1603'
p715
sS'126100'
p716
S'1794-886'
p717
sS'91946'
p718
S'664-1491'
p719
sS'404010'
p720
S'1150-1652'
p721
sS'13796'
p722
S'1480-1504'
p723
sS'111597'
p724
S'1617-800'
p725
sS'64324'
p726
S'1673-1247'
p727
sS'677164'
p728
S'581-1005'
p729
sS'168997'
p730
S'2022-879'
p731
sS'435269'
p732
S'2355-1288'
p733
sS'147919'
p734
S'1604-1381'
p735
sS'271816'
p736
S'1230-1620'
p737
sS'210883'
p738
S'2071-1701'
p739
sS'1715316'
p740
S'1473-626'
p741
sS'63729'
p742
S'1378-1807'
p743
sS'459195'
p744
S'1602-1288'
p745
sS'36559'
p746
S'1521-1778'
p747
sS'1967784'
p748
S'1612-1086'
p749
sS'111351'
p750
S'1202-1623'
p751
sS'321223'
p752
S'1374-1832'
p753
sS'113124'
p754
S'1636-1265'
p755
sS'6229'
p756
S'587-1380'
p757
sS'1967422'
p758
S'1353-1536'
p759
sS'35220'
p760
S'2827-1727'
p761
sS'897'
p762
S'1799-1062'
p763
sS'374124'
p764
S'1519-1053'
p765
sS'168207'
p766
S'1298-1031'
p767
sS'110039'
p768
S'1609-1190'
p769
sS'23989'
p770
S'1616-940'
p771
sS'480910'
p772
S'2919-1813'
p773
sS'1337641'
p774
S'1534-1607'
p775
sS'163125'
p776
S'1784-1337'
p777
sS'95194'
p778
S'1377-1479'
p779
sS'34952'
p780
S'833-1001'
p781
sS'271256'
p782
S'1415-1862'
p783
sS'7336'
p784
S'514-1350'
p785
sS'1962294'
p786
S'1539-1649'
p787
sS'37273'
p788
S'1464-1052'
p789
sS'90182'
p790
S'2227-1120'
p791
sS'1409813'
p792
S'1811-1369'
p793
sS'165965'
p794
S'1554-1052'
p795
sS'284071'
p796
S'1551-1053'
p797
sS'114665'
p798
S'2221-1343'
p799
sS'10212'
p800
S'1461-1501'
p801
sS'191937'
p802
S'3054-1840'
p803
sS'213907'
p804
S'713-936'
p805
sS'107763'
p806
S'1551-1491'
p807
sS'508924'
p808
S'1388-1760'
p809
sS'92011'
p810
S'1480-1697'
p811
sS'231565'
p812
S'1613-1004'
p813
sS'205683'
p814
S'1570-1052'
p815
sS'115505'
p816
S'1474-1874'
p817
sS'62067'
p818
S'2154-1806'
p819
sS'62038'
p820
S'665-1492'
p821
sS'86484'
p822
S'1527-1053'
p823
sS'1936352'
p824
S'1657-1409'
p825
sS'129483'
p826
S'1872-886'
p827
sS'67945'
p828
S'2215-1536'
p829
sS'52129'
p830
S'1981-1689'
p831
sS'666562'
p832
S'428-1294'
p833
sS'15342'
p834
S'439-1021'
p835
sS'87751'
p836
S'1820-770'
p837
sS'636061'
p838
S'1375-1651'
p839
sS'763584'
p840
S'1594-1345'
p841
sS'5765'
p842
S'1815-1506'
p843
sS'760360'
p844
S'1604-1275'
p845
sS'18356'
p846
S'1609-1023'
p847
sS'129893'
p848
S'1338-1740'
p849
sS'300162'
p850
S'1603-1279'
p851
sS'59515'
p852
S'1625-1492'
p853
sS'167138'
p854
S'1643-620'
p855
sS'50803'
p856
S'2382-1130'
p857
sS'14440'
p858
S'1609-1193'
p859
sS'103472'
p860
S'540-1417'
p861
sS'415298'
p862
S'610-1177'
p863
sS'22656'
p864
S'1791-1159'
p865
sS'1990551'
p866
S'1846-898'
p867
sS'1517127'
p868
S'1457-1047'
p869
sS'61425'
p870
S'1979-1865'
p871
sS'270190'
p872
S'1138-1000'
p873
sS'1965732'
p874
S'1884-1636'
p875
sS'1035999'
p876
S'1354-1530'
p877
sS'24684'
p878
S'1612-1056'
p879
sS'823946'
p880
S'1765-1828'
p881
sS'251347'
p882
S'1686-1612'
p883
sS'90717'
p884
S'1200-1645'
p885
sS'193832'
p886
S'1650-1487'
p887
sS'1686081'
p888
S'1190-1734'
p889
sS'155745'
p890
S'611-1289'
p891
sS'179722'
p892
S'1551-1493'
p893
sS'33368'
p894
S'1149-1679'
p895
sS'321281'
p896
S'1661-1265'
p897
sS'217929'
p898
S'1589-1560'
p899
sS'9036'
p900
S'1923-1383'
p901
sS'20405'
p902
S'1619-657'
p903
sS'6162'
p904
S'1518-1787'
p905
sS'10257'
p906
S'2208-1714'
p907
sS'173065'
p908
S'1516-1803'
p909
sS'1635'
p910
S'412-1338'
p911
sS'78457'
p912
S'599-1361'
p913
sS'43336'
p914
S'1516-1803'
p915
sS'81113'
p916
S'1831-1537'
p917
sS'114424'
p918
S'1618-584'
p919
sS'78296'
p920
S'2124-795'
p921
sS'583507'
p922
S'2219-1417'
p923
sS'33841'
p924
S'1353-1039'
p925
sS'925293'
p926
S'1533-1693'
p927
sS'366342'
p928
S'2226-1236'
p929
sS'164080'
p930
S'1644-407'
p931
sS'174155'
p932
S'1292-1596'
p933
sS'725816'
p934
S'2038-1534'
p935
sS'794715'
p936
S'1499-894'
p937
sS'89905'
p938
S'1442-1767'
p939
sS'140623'
p940
S'1107-1797'
p941
sS'45489'
p942
S'1545-1510'
p943
sS'191010'
p944
S'1547-1503'
p945
sS'297989'
p946
S'1674-1265'
p947
sS'190544'
p948
S'2271-879'
p949
sS'420878'
p950
S'728-1580'
p951
sS'336307'
p952
S'1324-1650'
p953
sS'222924'
p954
S'1236-1823'
p955
sS'126299'
p956
S'1139-1645'
p957
sS'126297'
p958
S'1398-1044'
p959
sS'80799'
p960
S'1763-1898'
p961
sS'72113'
p962
S'1509-1594'
p963
sS'309120'
p964
S'2060-1504'
p965
sS'260796'
p966
S'1811-771'
p967
sS'67731'
p968
S'1871-950'
p969
sS'140444'
p970
S'1512-1053'
p971
sS'49331'
p972
S'1204-1623'
p973
sS'236293'
p974
S'1916-1379'
p975
sS'22344'
p976
S'1793-772'
p977
sS'293124'
p978
S'1524-1517'
p979
sS'294184'
p980
S'936-996'
p981
sS'100567'
p982
S'1722-935'
p983
sS'70176'
p984
S'1768-1662'
p985
sS'199278'
p986
S'2025-772'
p987
sS'138270'
p988
S'1882-825'
p989
sS'105264'
p990
S'1230-1641'
p991
s.