(dp1
S'123925'
p2
S'1383-1472'
p3
sS'897962'
p4
S'810-1601'
p5
sS'1980123'
p6
S'1365-1040'
p7
sS'1634439'
p8
S'1527-1667'
p9
sS'49428'
p10
S'1610-1168'
p11
sS'295262'
p12
S'2276-1284'
p13
sS'35624'
p14
S'460-1015'
p15
sS'36668'
p16
S'1060-1645'
p17
sS'115950'
p18
S'2340-1288'
p19
sS'1238843'
p20
S'1148-1710'
p21
sS'1297561'
p22
S'1623-823'
p23
sS'24714'
p24
S'598-1365'
p25
sS'7519'
p26
S'390-1014'
p27
sS'2910'
p28
S'1334-1754'
p29
sS'199618'
p30
S'1827-1669'
p31
sS'227937'
p32
S'1085-994'
p33
sS'295562'
p34
S'1518-1778'
p35
sS'26934'
p36
S'718-958'
p37
sS'207150'
p38
S'1575-1417'
p39
sS'86406'
p40
S'1542-1693'
p41
sS'382210'
p42
S'2120-1544'
p43
sS'57934'
p44
S'1917-1331'
p45
sS'485051'
p46
S'1699-772'
p47
sS'337742'
p48
S'1635-771'
p49
sS'268102'
p50
S'1612-1087'
p51
sS'257337'
p52
S'1453-1648'
p53
sS'65652'
p54
S'611-1268'
p55
sS'120059'
p56
S'1534-1610'
p57
sS'788743'
p58
S'1904-889'
p59
sS'109473'
p60
S'2202-1890'
p61
sS'67256'
p62
S'1658-984'
p63
sS'3774'
p64
S'1432-1646'
p65
sS'130094'
p66
S'1547-872'
p67
sS'128581'
p68
S'1785-1312'
p69
sS'448638'
p70
S'1785-1313'
p71
sS'60139'
p72
S'1230-1622'
p73
sS'159744'
p74
S'1155-1729'
p75
sS'26724'
p76
S'1793-778'
p77
sS'1482686'
p78
S'1610-1186'
p79
sS'341627'
p80
S'1786-1284'
p81
sS'167230'
p82
S'707-1520'
p83
sS'16052'
p84
S'2300-1731'
p85
sS'31674'
p86
S'611-1287'
p87
sS'81333'
p88
S'1656-1474'
p89
sS'653663'
p90
S'1605-1268'
p91
sS'174109'
p92
S'1587-1896'
p93
sS'63656'
p94
S'2809-1794'
p95
sS'149410'
p96
S'2002-2396'
p97
sS'100010'
p98
S'1582-1395'
p99
sS'40330'
p100
S'1485-1541'
p101
sS'1938480'
p102
S'1001-994'
p103
sS'1526071'
p104
S'1617-882'
p105
sS'222589'
p106
S'1766-1930'
p107
sS'298392'
p108
S'1504-1446'
p109
sS'143316'
p110
S'2208-1720'
p111
sS'53733'
p112
S'1131-1794'
p113
sS'17039'
p114
S'1787-1247'
p115
sS'1570936'
p116
S'2129-1279'
p117
sS'39929'
p118
S'1167-1638'
p119
sS'1949595'
p120
S'1702-772'
p121
sS'22903'
p122
S'1523-1053'
p123
sS'47794'
p124
S'1579-1404'
p125
sS'526040'
p126
S'1982-995'
p127
sS'86148'
p128
S'1612-1060'
p129
sS'125582'
p130
S'2239-1282'
p131
sS'141128'
p132
S'602-1345'
p133
sS'239628'
p134
S'2110-1543'
p135
sS'511930'
p136
S'1794-704'
p137
sS'455522'
p138
S'1612-1061'
p139
sS'144058'
p140
S'459-1352'
p141
sS'143414'
p142
S'732-1064'
p143
sS'325972'
p144
S'1607-1230'
p145
sS'126835'
p146
S'1792-1008'
p147
sS'1356428'
p148
S'1348-1575'
p149
sS'135968'
p150
S'1344-1578'
p151
sS'1954930'
p152
S'1787-1502'
p153
sS'574963'
p154
S'1793-787'
p155
sS'354786'
p156
S'1400-1515'
p157
sS'5136'
p158
S'833-1001'
p159
sS'299236'
p160
S'1728-1266'
p161
sS'121065'
p162
S'1562-1650'
p163
sS'106039'
p164
S'1644-786'
p165
sS'376793'
p166
S'1875-1514'
p167
sS'44762'
p168
S'1611-1141'
p169
sS'501564'
p170
S'1652-1546'
p171
sS'218884'
p172
S'1626-619'
p173
sS'729293'
p174
S'1926-772'
p175
sS'103618'
p176
S'1517-1053'
p177
sS'163665'
p178
S'737-1546'
p179
sS'291142'
p180
S'602-1345'
p181
sS'358947'
p182
S'1160-1645'
p183
sS'65607'
p184
S'1253-1647'
p185
sS'248790'
p186
S'1676-970'
p187
sS'238898'
p188
S'1793-823'
p189
sS'26321'
p190
S'1794-833'
p191
sS'359067'
p192
S'1328-1753'
p193
sS'5229'
p194
S'1187-1936'
p195
sS'265707'
p196
S'605-1426'
p197
sS'1968617'
p198
S'1790-973'
p199
sS'196288'
p200
S'1677-772'
p201
sS'248226'
p202
S'1533-1648'
p203
sS'1974848'
p204
S'326-1011'
p205
sS'215516'
p206
S'2263-1334'
p207
sS'15143'
p208
S'1385-1745'
p209
sS'1442163'
p210
S'1529-1648'
p211
sS'264179'
p212
S'2206-1763'
p213
sS'39522'
p214
S'3073-1844'
p215
sS'958215'
p216
S'1610-1180'
p217
sS'779796'
p218
S'1570-1432'
p219
sS'222259'
p220
S'1612-1054'
p221
sS'305975'
p222
S'953-995'
p223
sS'1017951'
p224
S'1793-814'
p225
sS'1312933'
p226
S'1593-1348'
p227
sS'189858'
p228
S'2271-867'
p229
sS'270934'
p230
S'1541-1532'
p231
sS'14395'
p232
S'1193-1627'
p233
sS'176840'
p234
S'1456-1870'
p235
sS'818086'
p236
S'1735-1367'
p237
sS'652192'
p238
S'1456-1051'
p239
sS'261307'
p240
S'1325-1753'
p241
sS'1935888'
p242
S'1649-992'
p243
sS'34012'
p244
S'1705-772'
p245
sS'1412122'
p246
S'1917-1341'
p247
sS'832291'
p248
S'1229-1612'
p249
sS'481093'
p250
S'1525-1693'
p251
sS'1094305'
p252
S'1619-688'
p253
sS'138644'
p254
S'1617-1265'
p255
sS'330593'
p256
S'1916-1459'
p257
sS'209922'
p258
S'1654-352'
p259
sS'237857'
p260
S'1334-1584'
p261
sS'33114'
p262
S'366-1186'
p263
sS'126289'
p264
S'1768-1662'
p265
sS'1959759'
p266
S'1554-1483'
p267
sS'16683'
p268
S'1794-837'
p269
sS'80788'
p270
S'716-949'
p271
sS'153024'
p272
S'1133-1784'
p273
sS'13832'
p274
S'2207-1744'
p275
sS'77575'
p276
S'1635-1382'
p277
sS'727818'
p278
S'1682-772'
p279
sS'1177880'
p280
S'1152-1645'
p281
sS'271871'
p282
S'2016-1532'
p283
sS'107097'
p284
S'1614-1017'
p285
sS'196302'
p286
S'2009-880'
p287
sS'70290'
p288
S'1805-985'
p289
sS'204509'
p290
S'2355-1738'
p291
sS'1436199'
p292
S'1533-1619'
p293
sS'92491'
p294
S'1794-893'
p295
sS'14390'
p296
S'1880-837'
p297
sS'73729'
p298
S'673-1493'
p299
sS'784933'
p300
S'3261-1883'
p301
sS'6329'
p302
S'2304-1304'
p303
sS'1179102'
p304
S'1288-1648'
p305
sS'18484'
p306
S'517-1366'
p307
sS'1663175'
p308
S'1847-1519'
p309
sS'73473'
p310
S'1789-904'
p311
sS'304707'
p312
S'269-1035'
p313
sS'158019'
p314
S'2077-882'
p315
sS'191222'
p316
S'1401-1580'
p317
sS'31990'
p318
S'1612-1044'
p319
sS'406389'
p320
S'1630-1265'
p321
sS'594788'
p322
S'1581-1398'
p323
sS'363057'
p324
S'1504-1936'
p325
sS'33433'
p326
S'1879-841'
p327
sS'45336'
p328
S'1607-1060'
p329
sS'195344'
p330
S'1008-993'
p331
sS'218977'
p332
S'1804-772'
p333
sS'222041'
p334
S'1914-1541'
p335
sS'308360'
p336
S'440-1348'
p337
sS'75439'
p338
S'1400-1510'
p339
sS'433598'
p340
S'1794-677'
p341
sS'163439'
p342
S'1774-1612'
p343
sS'706'
p344
S'1644-771'
p345
sS'77024'
p346
S'1649-1487'
p347
sS'701211'
p348
S'1833-769'
p349
sS'20293'
p350
S'1752-986'
p351
sS'57927'
p352
S'2001-1273'
p353
sS'24020'
p354
S'2202-1872'
p355
sS'160582'
p356
S'1529-1517'
p357
sS'227356'
p358
S'1663-309'
p359
sS'101781'
p360
S'2227-1206'
p361
sS'1426719'
p362
S'571-1006'
p363
sS'1134'
p364
S'1350-1567'
p365
sS'1970284'
p366
S'1259-1023'
p367
sS'24205'
p368
S'2891-1808'
p369
sS'32200'
p370
S'1962-994'
p371
sS'411929'
p372
S'1679-1365'
p373
sS'251645'
p374
S'1805-1268'
p375
sS'972663'
p376
S'808-1601'
p377
sS'576155'
p378
S'1341-1651'
p379
sS'504580'
p380
S'2205-1802'
p381
sS'156467'
p382
S'329-1011'
p383
sS'411369'
p384
S'2219-1719'
p385
sS'106638'
p386
S'1618-669'
p387
sS'179492'
p388
S'1756-1661'
p389
sS'296634'
p390
S'1769-1267'
p391
sS'301451'
p392
S'1136-1771'
p393
sS'730191'
p394
S'1430-1646'
p395
sS'1067393'
p396
S'1676-970'
p397
sS'105337'
p398
S'551-1007'
p399
sS'334930'
p400
S'1415-1492'
p401
sS'345480'
p402
S'1613-1019'
p403
sS'442197'
p404
S'1775-1367'
p405
sS'224742'
p406
S'1791-950'
p407
sS'112902'
p408
S'2203-1852'
p409
sS'222907'
p410
S'1837-900'
p411
sS'127696'
p412
S'1826-1508'
p413
sS'160364'
p414
S'2301-1330'
p415
sS'145703'
p416
S'1345-1651'
p417
sS'125559'
p418
S'1317-1035'
p419
sS'26526'
p420
S'2648-1778'
p421
sS'165391'
p422
S'2112-1402'
p423
sS'28176'
p424
S'1522-1053'
p425
sS'278573'
p426
S'516-1009'
p427
sS'164401'
p428
S'1908-1679'
p429
sS'90089'
p430
S'1149-1707'
p431
sS'83951'
p432
S'1402-1045'
p433
sS'72572'
p434
S'1412-1473'
p435
sS'228568'
p436
S'309-1011'
p437
sS'317237'
p438
S'440-1099'
p439
sS'204474'
p440
S'1264-1647'
p441
sS'428298'
p442
S'1554-1784'
p443
sS'1453603'
p444
S'1127-998'
p445
sS'719789'
p446
S'1483-1054'
p447
sS'738505'
p448
S'1724-779'
p449
sS'1350145'
p450
S'2030-880'
p451
sS'181694'
p452
S'1871-953'
p453
sS'309811'
p454
S'1558-1052'
p455
sS'1283058'
p456
S'520-1009'
p457
sS'256325'
p458
S'1637-436'
p459
sS'293819'
p460
S'2207-1746'
p461
sS'1936002'
p462
S'1333-1651'
p463
sS'82704'
p464
S'1010-993'
p465
sS'26596'
p466
S'2207-1738'
p467
sS'30401'
p468
S'2105-884'
p469
sS'20122'
p470
S'1637-1001'
p471
sS'76821'
p472
S'1647-396'
p473
sS'1884815'
p474
S'1388-1043'
p475
sS'132930'
p476
S'690-1506'
p477
sS'315165'
p478
S'423-1342'
p479
sS'1980773'
p480
S'1398-1044'
p481
sS'190827'
p482
S'1697-1266'
p483
sS'181441'
p484
S'1914-1564'
p485
sS'260546'
p486
S'1901-1270'
p487
sS'41773'
p488
S'443-1019'
p489
sS'172993'
p490
S'1796-1367'
p491
sS'16754'
p492
S'1784-1333'
p493
sS'77617'
p494
S'1635-779'
p495
sS'806587'
p496
S'1149-1681'
p497
sS'75'
p498
S'2056-1699'
p499
sS'850328'
p500
S'1418-1047'
p501
sS'28034'
p502
S'1568-1052'
p503
sS'114716'
p504
S'1149-1693'
p505
sS'87054'
p506
S'1532-1648'
p507
sS'240996'
p508
S'823-1002'
p509
sS'1564667'
p510
S'620-1003'
p511
sS'955828'
p512
S'714-937'
p513
sS'1405040'
p514
S'1786-1277'
p515
sS'64571'
p516
S'1794-874'
p517
sS'12486'
p518
S'1793-772'
p519
sS'562784'
p520
S'1148-1710'
p521
sS'309071'
p522
S'1842-769'
p523
sS'15518'
p524
S'1583-1493'
p525
sS'1981037'
p526
S'1609-1210'
p527
sS'32131'
p528
S'1920-1383'
p529
sS'11667'
p530
S'596-1393'
p531
sS'1958346'
p532
S'1794-883'
p533
sS'1054215'
p534
S'1376-1819'
p535
sS'45430'
p536
S'1617-813'
p537
sS'216476'
p538
S'1786-1267'
p539
sS'8650'
p540
S'736-1549'
p541
sS'174694'
p542
S'1785-1301'
p543
sS'315940'
p544
S'1245-1741'
p545
sS'66019'
p546
S'306-1011'
p547
sS'50886'
p548
S'1345-1577'
p549
sS'468365'
p550
S'501-1275'
p551
sS'999'
p552
S'2130-1998'
p553
sS'240221'
p554
S'1412-1763'
p555
sS'639658'
p556
S'1161-1730'
p557
sS'1995728'
p558
S'980-994'
p559
sS'221099'
p560
S'1652-989'
p561
sS'254188'
p562
S'1625-755'
p563
sS'108212'
p564
S'1597-1323'
p565
sS'469174'
p566
S'1387-1617'
p567
sS'85994'
p568
S'610-1442'
p569
sS'358441'
p570
S'1280-1028'
p571
sS'293713'
p572
S'2116-773'
p573
sS'367108'
p574
S'2449-892'
p575
sS'126771'
p576
S'707-1520'
p577
sS'10753'
p578
S'481-1358'
p579
sS'38203'
p580
S'1612-1108'
p581
sS'112909'
p582
S'541-1275'
p583
sS'35350'
p584
S'1145-1000'
p585
sS'55735'
p586
S'1384-1736'
p587
sS'1936049'
p588
S'2383-1742'
p589
sS'1611542'
p590
S'1150-1645'
p591
sS'1946001'
p592
S'1714-772'
p593
sS'107225'
p594
S'2035-1696'
p595
sS'307753'
p596
S'1472-1649'
p597
sS'64206'
p598
S'1441-1588'
p599
sS'76989'
p600
S'1263-1647'
p601
sS'36990'
p602
S'2027-1275'
p603
sS'8448'
p604
S'1230-1628'
p605
sS'435026'
p606
S'1817-1268'
p607
sS'3471'
p608
S'1661-1265'
p609
sS'1073960'
p610
S'1599-1308'
p611
sS'37434'
p612
S'2339-1288'
p613
sS'251378'
p614
S'1617-840'
p615
sS'20590'
p616
S'1618-670'
p617
sS'84183'
p618
S'1248-1021'
p619
sS'4490'
p620
S'1449-1500'
p621
sS'299998'
p622
S'1315-995'
p623
sS'808255'
p624
S'2288-1821'
p625
sS'319566'
p626
S'1655-1502'
p627
sS'1392446'
p628
S'339-1120'
p629
sS'406255'
p630
S'1666-301'
p631
sS'81698'
p632
S'1643-1655'
p633
sS'334743'
p634
S'1558-1052'
p635
sS'42533'
p636
S'1134-1780'
p637
sS'284500'
p638
S'1850-456'
p639
sS'11518'
p640
S'440-1195'
p641
sS'156270'
p642
S'1721-1708'
p643
sS'161220'
p644
S'1577-1676'
p645
sS'146350'
p646
S'1302-1593'
p647
sS'910403'
p648
S'1654-1368'
p649
sS'897948'
p650
S'1500-1649'
p651
sS'982803'
p652
S'2279-1284'
p653
sS'34292'
p654
S'2011-1978'
p655
sS'69293'
p656
S'1108-1645'
p657
sS'40267'
p658
S'701-1005'
p659
sS'1608585'
p660
S'1375-1498'
p661
sS'646626'
p662
S'2011-1097'
p663
sS'222232'
p664
S'1765-1868'
p665
sS'214340'
p666
S'2174-1550'
p667
sS'259068'
p668
S'1619-605'
p669
sS'331392'
p670
S'2355-1848'
p671
sS'45964'
p672
S'1260-1743'
p673
sS'101'
p674
S'1759-1545'
p675
sS'64585'
p676
S'3132-1856'
p677
sS'1968552'
p678
S'1885-804'
p679
sS'98982'
p680
S'1864-1013'
p681
sS'205146'
p682
S'448-1018'
p683
sS'193555'
p684
S'1647-993'
p685
sS'1139290'
p686
S'2024-1395'
p687
sS'230966'
p688
S'1774-1643'
p689
sS'507761'
p690
S'1182-1007'
p691
sS'153504'
p692
S'1634-1265'
p693
sS'152999'
p694
S'1549-1499'
p695
sS'8061'
p696
S'1603-1281'
p697
sS'194983'
p698
S'1794-908'
p699
sS'582439'
p700
S'1386-1577'
p701
sS'95081'
p702
S'1492-1774'
p703
sS'79240'
p704
S'1793-1088'
p705
sS'101457'
p706
S'1216-1915'
p707
sS'140826'
p708
S'853-1610'
p709
sS'1460883'
p710
S'817-1603'
p711
sS'126100'
p712
S'1794-885'
p713
sS'91946'
p714
S'667-1492'
p715
sS'404010'
p716
S'1150-1650'
p717
sS'13796'
p718
S'1483-1504'
p719
sS'111597'
p720
S'1617-799'
p721
sS'64324'
p722
S'1673-1250'
p723
sS'677164'
p724
S'586-1005'
p725
sS'168997'
p726
S'2025-879'
p727
sS'435269'
p728
S'2363-1289'
p729
sS'147919'
p730
S'1606-1381'
p731
sS'271816'
p732
S'1230-1620'
p733
sS'210883'
p734
S'2075-1702'
p735
sS'1715316'
p736
S'1467-627'
p737
sS'63729'
p738
S'1377-1809'
p739
sS'459195'
p740
S'1603-1284'
p741
sS'36559'
p742
S'1521-1778'
p743
sS'1967784'
p744
S'1612-1082'
p745
sS'111351'
p746
S'1204-1623'
p747
sS'321223'
p748
S'1373-1835'
p749
sS'113124'
p750
S'1631-1265'
p751
sS'6229'
p752
S'586-1380'
p753
sS'1967422'
p754
S'1353-1536'
p755
sS'35220'
p756
S'2823-1727'
p757
sS'897'
p758
S'1800-1062'
p759
sS'374124'
p760
S'1516-1053'
p761
sS'168207'
p762
S'1302-1032'
p763
sS'110039'
p764
S'1609-1189'
p765
sS'23989'
p766
S'1616-940'
p767
sS'480910'
p768
S'2922-1813'
p769
sS'1337641'
p770
S'1534-1606'
p771
sS'163125'
p772
S'1784-1337'
p773
sS'95194'
p774
S'1380-1475'
p775
sS'34952'
p776
S'832-1001'
p777
sS'271256'
p778
S'1417-1863'
p779
sS'7336'
p780
S'515-1346'
p781
sS'1962294'
p782
S'1537-1649'
p783
sS'37273'
p784
S'1459-1051'
p785
sS'90182'
p786
S'2224-1120'
p787
sS'1409813'
p788
S'1811-1369'
p789
sS'165965'
p790
S'1557-1052'
p791
sS'284071'
p792
S'1553-1052'
p793
sS'114665'
p794
S'2221-1348'
p795
sS'10212'
p796
S'1462-1501'
p797
sS'191937'
p798
S'3058-1841'
p799
sS'213907'
p800
S'714-939'
p801
sS'107763'
p802
S'1551-1492'
p803
sS'508924'
p804
S'1392-1760'
p805
sS'92011'
p806
S'1484-1696'
p807
sS'231565'
p808
S'1613-1003'
p809
sS'205683'
p810
S'1572-1050'
p811
sS'115505'
p812
S'1474-1874'
p813
sS'62067'
p814
S'2153-1806'
p815
sS'62038'
p816
S'664-1491'
p817
sS'86484'
p818
S'1523-1053'
p819
sS'1936352'
p820
S'1657-1411'
p821
sS'129483'
p822
S'1872-886'
p823
sS'67945'
p824
S'2215-1534'
p825
sS'52129'
p826
S'1980-1689'
p827
sS'666562'
p828
S'429-1292'
p829
sS'15342'
p830
S'439-1021'
p831
sS'87751'
p832
S'1819-770'
p833
sS'636061'
p834
S'1374-1651'
p835
sS'763584'
p836
S'1593-1349'
p837
sS'5765'
p838
S'1813-1506'
p839
sS'760360'
p840
S'1604-1273'
p841
sS'18356'
p842
S'1611-1021'
p843
sS'129893'
p844
S'1338-1740'
p845
sS'300162'
p846
S'1603-1281'
p847
sS'59515'
p848
S'1623-1491'
p849
sS'167138'
p850
S'1643-620'
p851
sS'50803'
p852
S'2384-1130'
p853
sS'14440'
p854
S'1609-1190'
p855
sS'103472'
p856
S'537-1417'
p857
sS'415298'
p858
S'610-1174'
p859
sS'22656'
p860
S'1791-1162'
p861
sS'1990551'
p862
S'1845-898'
p863
sS'1517127'
p864
S'1458-1047'
p865
sS'61425'
p866
S'1978-1867'
p867
sS'270190'
p868
S'1134-999'
p869
sS'1965732'
p870
S'1885-1636'
p871
sS'1035999'
p872
S'1354-1527'
p873
sS'24684'
p874
S'1612-1056'
p875
sS'823946'
p876
S'1765-1826'
p877
sS'251347'
p878
S'1683-1612'
p879
sS'90717'
p880
S'1199-1645'
p881
sS'193832'
p882
S'1647-1488'
p883
sS'1686081'
p884
S'1190-1734'
p885
sS'155745'
p886
S'612-1285'
p887
sS'179722'
p888
S'1552-1490'
p889
sS'33368'
p890
S'1149-1683'
p891
sS'321281'
p892
S'1664-1265'
p893
sS'217929'
p894
S'1584-1559'
p895
sS'9036'
p896
S'1923-1383'
p897
sS'20405'
p898
S'1619-658'
p899
sS'6162'
p900
S'1517-1790'
p901
sS'10257'
p902
S'2208-1709'
p903
sS'173065'
p904
S'1517-1797'
p905
sS'1635'
p906
S'412-1338'
p907
sS'78457'
p908
S'599-1362'
p909
sS'43336'
p910
S'1517-1793'
p911
sS'81113'
p912
S'1834-1536'
p913
sS'114424'
p914
S'1618-588'
p915
sS'78296'
p916
S'2125-797'
p917
sS'583507'
p918
S'2219-1420'
p919
sS'33841'
p920
S'1355-1039'
p921
sS'925293'
p922
S'1534-1693'
p923
sS'366342'
p924
S'2225-1238'
p925
sS'164080'
p926
S'1645-403'
p927
sS'174155'
p928
S'1290-1596'
p929
sS'725816'
p930
S'2039-1535'
p931
sS'794715'
p932
S'1499-892'
p933
sS'89905'
p934
S'1441-1767'
p935
sS'140623'
p936
S'1102-1797'
p937
sS'45489'
p938
S'1546-1508'
p939
sS'191010'
p940
S'1548-1501'
p941
sS'297989'
p942
S'1674-1265'
p943
sS'190544'
p944
S'2271-883'
p945
sS'420878'
p946
S'729-1577'
p947
sS'336307'
p948
S'1330-1651'
p949
sS'222924'
p950
S'1237-1823'
p951
sS'126299'
p952
S'1141-1645'
p953
sS'126297'
p954
S'1395-1044'
p955
sS'80799'
p956
S'1763-1902'
p957
sS'72113'
p958
S'1511-1594'
p959
sS'309120'
p960
S'2060-1508'
p961
sS'260796'
p962
S'1811-771'
p963
sS'67731'
p964
S'1871-953'
p965
sS'140444'
p966
S'1515-1053'
p967
sS'49331'
p968
S'1200-1624'
p969
sS'236293'
p970
S'1916-1379'
p971
sS'22344'
p972
S'1793-772'
p973
sS'293124'
p974
S'1523-1517'
p975
sS'294184'
p976
S'935-996'
p977
sS'100567'
p978
S'1724-933'
p979
sS'70176'
p980
S'1771-1662'
p981
sS'199278'
p982
S'2032-772'
p983
sS'138270'
p984
S'1882-826'
p985
sS'105264'
p986
S'1230-1642'
p987
s.