(dp1
S'123925'
p2
S'1389-1465'
p3
sS'897962'
p4
S'799-1599'
p5
sS'1980123'
p6
S'1380-1042'
p7
sS'1634439'
p8
S'1528-1653'
p9
sS'49428'
p10
S'1611-1152'
p11
sS'295262'
p12
S'2272-1284'
p13
sS'35624'
p14
S'486-1012'
p15
sS'36668'
p16
S'1070-1645'
p17
sS'115950'
p18
S'2350-1288'
p19
sS'1238843'
p20
S'1149-1706'
p21
sS'1297561'
p22
S'1623-825'
p23
sS'24714'
p24
S'597-1376'
p25
sS'7519'
p26
S'424-1018'
p27
sS'2910'
p28
S'1349-1755'
p29
sS'199618'
p30
S'1823-1668'
p31
sS'41795'
p32
S'1570-1469'
p33
sS'227937'
p34
S'1097-995'
p35
sS'295562'
p36
S'1518-1778'
p37
sS'26934'
p38
S'716-947'
p39
sS'207150'
p40
S'1585-1386'
p41
sS'86406'
p42
S'1527-1693'
p43
sS'382210'
p44
S'2112-1543'
p45
sS'57934'
p46
S'1917-1335'
p47
sS'485051'
p48
S'1713-772'
p49
sS'337742'
p50
S'1638-771'
p51
sS'268102'
p52
S'1612-1119'
p53
sS'257337'
p54
S'1439-1646'
p55
sS'65652'
p56
S'612-1285'
p57
sS'120059'
p58
S'1535-1605'
p59
sS'788743'
p60
S'1930-887'
p61
sS'109473'
p62
S'2202-1870'
p63
sS'67256'
p64
S'1671-974'
p65
sS'3774'
p66
S'1456-1648'
p67
sS'130094'
p68
S'1550-872'
p69
sS'128581'
p70
S'1784-1334'
p71
sS'448638'
p72
S'1785-1302'
p73
sS'60139'
p74
S'1230-1623'
p75
sS'159744'
p76
S'1158-1730'
p77
sS'26724'
p78
S'1793-781'
p79
sS'1482686'
p80
S'1609-1202'
p81
sS'316746'
p82
S'1164-1730'
p83
sS'341627'
p84
S'1785-1299'
p85
sS'167230'
p86
S'701-1515'
p87
sS'16052'
p88
S'2301-1731'
p89
sS'31674'
p90
S'604-1279'
p91
sS'81333'
p92
S'1656-1483'
p93
sS'653663'
p94
S'1619-1265'
p95
sS'174109'
p96
S'1577-1894'
p97
sS'63656'
p98
S'2832-1797'
p99
sS'149410'
p100
S'2002-2395'
p101
sS'100010'
p102
S'1592-1380'
p103
sS'40330'
p104
S'1497-1525'
p105
sS'1938480'
p106
S'1022-993'
p107
sS'1526071'
p108
S'1617-884'
p109
sS'222589'
p110
S'1788-1935'
p111
sS'298392'
p112
S'1513-1447'
p113
sS'143316'
p114
S'2207-1749'
p115
sS'53733'
p116
S'1133-1784'
p117
sS'17039'
p118
S'1787-1231'
p119
sS'1570936'
p120
S'2112-1278'
p121
sS'39929'
p122
S'1150-1646'
p123
sS'1949595'
p124
S'1718-772'
p125
sS'22903'
p126
S'1518-1053'
p127
sS'47794'
p128
S'1579-1404'
p129
sS'526040'
p130
S'2001-996'
p131
sS'86148'
p132
S'1612-1076'
p133
sS'125582'
p134
S'2253-1283'
p135
sS'141128'
p136
S'603-1336'
p137
sS'239628'
p138
S'2124-1544'
p139
sS'511930'
p140
S'1794-707'
p141
sS'455522'
p142
S'1612-1088'
p143
sS'144058'
p144
S'460-1352'
p145
sS'143414'
p146
S'734-1091'
p147
sS'325972'
p148
S'1608-1220'
p149
sS'126835'
p150
S'1790-990'
p151
sS'1356428'
p152
S'1342-1579'
p153
sS'135968'
p154
S'1336-1582'
p155
sS'1954930'
p156
S'1763-1500'
p157
sS'574963'
p158
S'1793-785'
p159
sS'354786'
p160
S'1399-1515'
p161
sS'5136'
p162
S'843-1000'
p163
sS'299236'
p164
S'1744-1266'
p165
sS'121065'
p166
S'1540-1649'
p167
sS'106039'
p168
S'1646-787'
p169
sS'376793'
p170
S'1869-1513'
p171
sS'44762'
p172
S'1612-1119'
p173
sS'501564'
p174
S'1652-1562'
p175
sS'729293'
p176
S'1932-773'
p177
sS'103618'
p178
S'1514-1053'
p179
sS'163665'
p180
S'725-1535'
p181
sS'291142'
p182
S'602-1343'
p183
sS'358947'
p184
S'1160-1645'
p185
sS'65607'
p186
S'1273-1648'
p187
sS'248790'
p188
S'1690-960'
p189
sS'238898'
p190
S'1793-824'
p191
sS'26321'
p192
S'1794-853'
p193
sS'359067'
p194
S'1340-1754'
p195
sS'5229'
p196
S'1184-1936'
p197
sS'265707'
p198
S'607-1433'
p199
sS'1968617'
p200
S'1789-979'
p201
sS'196288'
p202
S'1687-772'
p203
sS'248226'
p204
S'1509-1649'
p205
sS'1974848'
p206
S'316-1011'
p207
sS'215516'
p208
S'2278-1334'
p209
sS'15143'
p210
S'1385-1743'
p211
sS'1442163'
p212
S'1527-1673'
p213
sS'264179'
p214
S'2207-1749'
p215
sS'39522'
p216
S'3111-1852'
p217
sS'958215'
p218
S'1609-1198'
p219
sS'779796'
p220
S'1567-1442'
p221
sS'222259'
p222
S'1612-1064'
p223
sS'305975'
p224
S'929-996'
p225
sS'1017951'
p226
S'1793-815'
p227
sS'1312933'
p228
S'1569-1354'
p229
sS'189858'
p230
S'2271-849'
p231
sS'270934'
p232
S'1542-1521'
p233
sS'14395'
p234
S'1212-1619'
p235
sS'176840'
p236
S'1427-1865'
p237
sS'818086'
p238
S'1755-1367'
p239
sS'652192'
p240
S'1479-1054'
p241
sS'261307'
p242
S'1334-1754'
p243
sS'1935888'
p244
S'1664-980'
p245
sS'34012'
p246
S'1704-772'
p247
sS'1412122'
p248
S'1917-1334'
p249
sS'832291'
p250
S'1228-1613'
p251
sS'481093'
p252
S'1525-1693'
p253
sS'1094305'
p254
S'1621-709'
p255
sS'138644'
p256
S'1606-1261'
p257
sS'330593'
p258
S'1915-1475'
p259
sS'209922'
p260
S'1652-370'
p261
sS'237857'
p262
S'1345-1577'
p263
sS'33114'
p264
S'360-1177'
p265
sS'126289'
p266
S'1748-1661'
p267
sS'1959759'
p268
S'1550-1497'
p269
sS'16683'
p270
S'1794-851'
p271
sS'80788'
p272
S'714-941'
p273
sS'153024'
p274
S'1137-1768'
p275
sS'13832'
p276
S'2207-1743'
p277
sS'77575'
p278
S'1629-1382'
p279
sS'727818'
p280
S'1693-772'
p281
sS'1177880'
p282
S'1153-1644'
p283
sS'271871'
p284
S'1996-1530'
p285
sS'107097'
p286
S'1614-1015'
p287
sS'196302'
p288
S'1993-881'
p289
sS'70290'
p290
S'1811-986'
p291
sS'1436199'
p292
S'1528-1660'
p293
sS'92491'
p294
S'1794-899'
p295
sS'14390'
p296
S'1883-819'
p297
sS'73729'
p298
S'657-1490'
p299
sS'784933'
p300
S'3234-1877'
p301
sS'6329'
p302
S'2306-1291'
p303
sS'1179102'
p304
S'1242-1646'
p305
sS'18484'
p306
S'521-1368'
p307
sS'1663175'
p308
S'1848-1514'
p309
sS'73473'
p310
S'1791-906'
p311
sS'304707'
p312
S'269-1038'
p313
sS'158019'
p314
S'2106-884'
p315
sS'191222'
p316
S'1413-1583'
p317
sS'31990'
p318
S'1612-1061'
p319
sS'406389'
p320
S'1655-1265'
p321
sS'594788'
p322
S'1588-1375'
p323
sS'363057'
p324
S'1504-1937'
p325
sS'33433'
p326
S'1878-847'
p327
sS'45336'
p328
S'1612-1063'
p329
sS'195344'
p330
S'1023-993'
p331
sS'218977'
p332
S'1803-772'
p333
sS'222041'
p334
S'1914-1560'
p335
sS'308360'
p336
S'436-1346'
p337
sS'75439'
p338
S'1403-1491'
p339
sS'433598'
p340
S'1794-674'
p341
sS'163439'
p342
S'1774-1609'
p343
sS'527173'
p344
S'1591-1359'
p345
sS'706'
p346
S'1649-771'
p347
sS'77024'
p348
S'1635-1493'
p349
sS'701211'
p350
S'1839-769'
p351
sS'20293'
p352
S'1759-985'
p353
sS'57927'
p354
S'1997-1273'
p355
sS'24020'
p356
S'2203-1859'
p357
sS'160582'
p358
S'1521-1517'
p359
sS'227356'
p360
S'1670-286'
p361
sS'101781'
p362
S'2228-1190'
p363
sS'1426719'
p364
S'576-1005'
p365
sS'1134'
p366
S'1345-1577'
p367
sS'1970284'
p368
S'1267-1025'
p369
sS'24205'
p370
S'2908-1811'
p371
sS'32200'
p372
S'1978-995'
p373
sS'411929'
p374
S'1675-1364'
p375
sS'251645'
p376
S'1838-1268'
p377
sS'972663'
p378
S'793-1598'
p379
sS'576155'
p380
S'1296-1649'
p381
sS'504580'
p382
S'2205-1804'
p383
sS'156467'
p384
S'330-1011'
p385
sS'411369'
p386
S'2209-1718'
p387
sS'106638'
p388
S'1618-673'
p389
sS'179492'
p390
S'1732-1660'
p391
sS'296634'
p392
S'1794-1267'
p393
sS'301451'
p394
S'1133-1786'
p395
sS'730191'
p396
S'1422-1645'
p397
sS'1067393'
p398
S'1684-964'
p399
sS'105337'
p400
S'522-1009'
p401
sS'334930'
p402
S'1416-1492'
p403
sS'345480'
p404
S'1612-1032'
p405
sS'442197'
p406
S'1753-1367'
p407
sS'224742'
p408
S'1791-956'
p409
sS'112902'
p410
S'2203-1853'
p411
sS'222907'
p412
S'1832-901'
p413
sS'127696'
p414
S'1839-1509'
p415
sS'160364'
p416
S'2301-1333'
p417
sS'145703'
p418
S'1332-1651'
p419
sS'125559'
p420
S'1285-1029'
p421
sS'26526'
p422
S'2674-1780'
p423
sS'165391'
p424
S'2130-1404'
p425
sS'28176'
p426
S'1500-1053'
p427
sS'278573'
p428
S'543-1008'
p429
sS'164401'
p430
S'1894-1677'
p431
sS'90089'
p432
S'1149-1706'
p433
sS'83951'
p434
S'1410-1046'
p435
sS'72572'
p436
S'1403-1494'
p437
sS'228568'
p438
S'298-1011'
p439
sS'317237'
p440
S'440-1081'
p441
sS'204474'
p442
S'1258-1647'
p443
sS'428298'
p444
S'1550-1783'
p445
sS'1453603'
p446
S'1148-1001'
p447
sS'719789'
p448
S'1492-1054'
p449
sS'738505'
p450
S'1723-779'
p451
sS'1350145'
p452
S'2058-881'
p453
sS'181694'
p454
S'1873-934'
p455
sS'309811'
p456
S'1553-1052'
p457
sS'1283058'
p458
S'503-1010'
p459
sS'256325'
p460
S'1642-416'
p461
sS'293819'
p462
S'2207-1745'
p463
sS'1936002'
p464
S'1310-1650'
p465
sS'82704'
p466
S'1031-993'
p467
sS'26596'
p468
S'2207-1733'
p469
sS'30401'
p470
S'2095-883'
p471
sS'20122'
p472
S'1654-988'
p473
sS'76821'
p474
S'1640-426'
p475
sS'1884815'
p476
S'1385-1043'
p477
sS'132930'
p478
S'695-1510'
p479
sS'315165'
p480
S'426-1343'
p481
sS'1980773'
p482
S'1404-1045'
p483
sS'190827'
p484
S'1695-1266'
p485
sS'181441'
p486
S'1914-1550'
p487
sS'260546'
p488
S'1918-1271'
p489
sS'41773'
p490
S'439-1035'
p491
sS'172993'
p492
S'1792-1367'
p493
sS'16754'
p494
S'1785-1319'
p495
sS'77617'
p496
S'1636-780'
p497
sS'806587'
p498
S'1149-1683'
p499
sS'75'
p500
S'2044-1698'
p501
sS'850328'
p502
S'1445-1050'
p503
sS'28034'
p504
S'1565-1052'
p505
sS'114716'
p506
S'1149-1694'
p507
sS'87054'
p508
S'1549-1649'
p509
sS'240996'
p510
S'801-1003'
p511
sS'1564667'
p512
S'639-1004'
p513
sS'1405040'
p514
S'1784-1267'
p515
sS'64571'
p516
S'1794-876'
p517
sS'12486'
p518
S'1793-772'
p519
sS'562784'
p520
S'1148-1712'
p521
sS'309071'
p522
S'1845-768'
p523
sS'15518'
p524
S'1585-1493'
p525
sS'1981037'
p526
S'1609-1198'
p527
sS'32131'
p528
S'1921-1383'
p529
sS'11667'
p530
S'588-1380'
p531
sS'1958346'
p532
S'1794-885'
p533
sS'1054215'
p534
S'1376-1820'
p535
sS'45430'
p536
S'1617-808'
p537
sS'216476'
p538
S'1786-1267'
p539
sS'8650'
p540
S'732-1567'
p541
sS'174694'
p542
S'1786-1292'
p543
sS'315940'
p544
S'1256-1743'
p545
sS'66019'
p546
S'285-1011'
p547
sS'50886'
p548
S'1351-1559'
p549
sS'468365'
p550
S'510-1275'
p551
sS'999'
p552
S'2160-2002'
p553
sS'240221'
p554
S'1413-1763'
p555
sS'639658'
p556
S'1172-1731'
p557
sS'1995728'
p558
S'976-994'
p559
sS'221099'
p560
S'1666-978'
p561
sS'254188'
p562
S'1624-752'
p563
sS'108212'
p564
S'1594-1339'
p565
sS'469174'
p566
S'1387-1613'
p567
sS'85994'
p568
S'613-1452'
p569
sS'358441'
p570
S'1302-1032'
p571
sS'293713'
p572
S'2111-773'
p573
sS'367108'
p574
S'2453-892'
p575
sS'126771'
p576
S'716-1527'
p577
sS'10753'
p578
S'493-1361'
p579
sS'38203'
p580
S'1612-1076'
p581
sS'112909'
p582
S'531-1275'
p583
sS'35350'
p584
S'1111-997'
p585
sS'55735'
p586
S'1384-1734'
p587
sS'1936049'
p588
S'2348-1737'
p589
sS'1611542'
p590
S'1150-1645'
p591
sS'1946001'
p592
S'1718-772'
p593
sS'107225'
p594
S'2040-1697'
p595
sS'307753'
p596
S'1457-1648'
p597
sS'64206'
p598
S'1440-1588'
p599
sS'76989'
p600
S'1279-1648'
p601
sS'36990'
p602
S'2036-1275'
p603
sS'8448'
p604
S'1230-1629'
p605
sS'435026'
p606
S'1824-1268'
p607
sS'3471'
p608
S'1646-1265'
p609
sS'1073960'
p610
S'1594-1339'
p611
sS'37434'
p612
S'2349-1288'
p613
sS'251378'
p614
S'1617-818'
p615
sS'20590'
p616
S'1618-671'
p617
sS'84183'
p618
S'1265-1024'
p619
sS'4490'
p620
S'1426-1495'
p621
sS'299998'
p622
S'1316-991'
p623
sS'808255'
p624
S'2300-1822'
p625
sS'319566'
p626
S'1656-1481'
p627
sS'1392446'
p628
S'339-1129'
p629
sS'406255'
p630
S'1671-281'
p631
sS'81698'
p632
S'1642-1668'
p633
sS'334743'
p634
S'1583-1055'
p635
sS'42533'
p636
S'1131-1796'
p637
sS'284500'
p638
S'1853-448'
p639
sS'11518'
p640
S'440-1202'
p641
sS'156270'
p642
S'1696-1703'
p643
sS'161220'
p644
S'1576-1677'
p645
sS'146350'
p646
S'1288-1597'
p647
sS'910403'
p648
S'1658-1364'
p649
sS'897948'
p650
S'1514-1648'
p651
sS'982803'
p652
S'2301-1286'
p653
sS'34292'
p654
S'2025-1980'
p655
sS'69293'
p656
S'1121-1645'
p657
sS'40267'
p658
S'695-1004'
p659
sS'1608585'
p660
S'1359-1501'
p661
sS'646626'
p662
S'2013-1082'
p663
sS'222232'
p664
S'1765-1842'
p665
sS'214340'
p666
S'2173-1550'
p667
sS'259068'
p668
S'1619-601'
p669
sS'331392'
p670
S'2357-1840'
p671
sS'45964'
p672
S'1266-1744'
p673
sS'101'
p674
S'1770-1546'
p675
sS'64585'
p676
S'3109-1852'
p677
sS'1968552'
p678
S'1883-820'
p679
sS'98982'
p680
S'1864-1014'
p681
sS'205146'
p682
S'421-1018'
p683
sS'193555'
p684
S'1659-984'
p685
sS'1139290'
p686
S'2039-1396'
p687
sS'230966'
p688
S'1775-1657'
p689
sS'507761'
p690
S'1201-1011'
p691
sS'153504'
p692
S'1622-1265'
p693
sS'152999'
p694
S'1555-1480'
p695
sS'203661'
p696
S'494-1361'
p697
sS'8061'
p698
S'1600-1301'
p699
sS'194983'
p700
S'1794-908'
p701
sS'582439'
p702
S'1379-1577'
p703
sS'95081'
p704
S'1473-1771'
p705
sS'79240'
p706
S'1793-1060'
p707
sS'101457'
p708
S'1220-1915'
p709
sS'140826'
p710
S'868-1614'
p711
sS'1460883'
p712
S'829-1605'
p713
sS'126100'
p714
S'1794-891'
p715
sS'91946'
p716
S'654-1489'
p717
sS'404010'
p718
S'1150-1658'
p719
sS'13796'
p720
S'1469-1502'
p721
sS'111597'
p722
S'1617-803'
p723
sS'64324'
p724
S'1675-1232'
p725
sS'677164'
p726
S'558-1007'
p727
sS'168997'
p728
S'2009-880'
p729
sS'435269'
p730
S'2319-1287'
p731
sS'147919'
p732
S'1595-1381'
p733
sS'271816'
p734
S'1230-1621'
p735
sS'210883'
p736
S'2051-1699'
p737
sS'1715316'
p738
S'1498-621'
p739
sS'63729'
p740
S'1380-1794'
p741
sS'459195'
p742
S'1599-1306'
p743
sS'36559'
p744
S'1520-1778'
p745
sS'1967784'
p746
S'1612-1105'
p747
sS'111351'
p748
S'1196-1626'
p749
sS'321223'
p750
S'1376-1817'
p751
sS'113124'
p752
S'1657-1265'
p753
sS'6229'
p754
S'592-1380'
p755
sS'1967422'
p756
S'1353-1537'
p757
sS'35220'
p758
S'2836-1737'
p759
sS'897'
p760
S'1796-1062'
p761
sS'374124'
p762
S'1532-1053'
p763
sS'168207'
p764
S'1279-1027'
p765
sS'110039'
p766
S'1609-1193'
p767
sS'23989'
p768
S'1616-941'
p769
sS'480910'
p770
S'2902-1810'
p771
sS'1337641'
p772
S'1534-1611'
p773
sS'163125'
p774
S'1784-1339'
p775
sS'95194'
p776
S'1360-1497'
p777
sS'34952'
p778
S'840-1000'
p779
sS'271256'
p780
S'1406-1860'
p781
sS'1962294'
p782
S'1549-1649'
p783
sS'37273'
p784
S'1483-1054'
p785
sS'90182'
p786
S'2239-1121'
p787
sS'1409813'
p788
S'1814-1369'
p789
sS'165965'
p790
S'1540-1053'
p791
sS'284071'
p792
S'1545-1053'
p793
sS'114665'
p794
S'2222-1322'
p795
sS'10212'
p796
S'1456-1501'
p797
sS'191937'
p798
S'3037-1836'
p799
sS'107763'
p800
S'1552-1488'
p801
sS'508924'
p802
S'1373-1758'
p803
sS'92011'
p804
S'1463-1698'
p805
sS'231565'
p806
S'1612-1011'
p807
sS'205683'
p808
S'1561-1052'
p809
sS'115505'
p810
S'1473-1874'
p811
sS'62067'
p812
S'2160-1808'
p813
sS'62038'
p814
S'671-1493'
p815
sS'86484'
p816
S'1544-1053'
p817
sS'1936352'
p818
S'1667-1410'
p819
sS'129483'
p820
S'1872-884'
p821
sS'67945'
p822
S'2214-1544'
p823
sS'471000'
p824
S'432-1284'
p825
sS'52129'
p826
S'1988-1690'
p827
sS'666562'
p828
S'425-1303'
p829
sS'15342'
p830
S'439-1021'
p831
sS'87751'
p832
S'1826-770'
p833
sS'636061'
p834
S'1378-1651'
p835
sS'763584'
p836
S'1596-1325'
p837
sS'5765'
p838
S'1828-1508'
p839
sS'760360'
p840
S'1603-1280'
p841
sS'18356'
p842
S'1601-1029'
p843
sS'129893'
p844
S'1337-1741'
p845
sS'300162'
p846
S'1605-1266'
p847
sS'59515'
p848
S'1633-1494'
p849
sS'167138'
p850
S'1646-620'
p851
sS'50803'
p852
S'2376-1129'
p853
sS'14440'
p854
S'1609-1206'
p855
sS'103472'
p856
S'554-1420'
p857
sS'415298'
p858
S'610-1187'
p859
sS'22656'
p860
S'1792-1145'
p861
sS'1990551'
p862
S'1855-896'
p863
sS'1517127'
p864
S'1455-1047'
p865
sS'61425'
p866
S'1980-1853'
p867
sS'312765'
p868
S'590-1380'
p869
sS'270190'
p870
S'1156-1001'
p871
sS'414539'
p872
S'713-936'
p873
sS'1965732'
p874
S'1878-1636'
p875
sS'1035999'
p876
S'1353-1541'
p877
sS'24684'
p878
S'1612-1055'
p879
sS'823946'
p880
S'1765-1839'
p881
sS'251347'
p882
S'1699-1615'
p883
sS'90717'
p884
S'1208-1645'
p885
sS'193832'
p886
S'1663-1487'
p887
sS'1686081'
p888
S'1192-1734'
p889
sS'155745'
p890
S'608-1310'
p891
sS'179722'
p892
S'1547-1505'
p893
sS'33368'
p894
S'1149-1665'
p895
sS'321281'
p896
S'1648-1265'
p897
sS'217929'
p898
S'1612-1560'
p899
sS'9036'
p900
S'1924-1384'
p901
sS'20405'
p902
S'1619-651'
p903
sS'6162'
p904
S'1523-1778'
p905
sS'10257'
p906
S'2207-1733'
p907
sS'173065'
p908
S'1514-1828'
p909
sS'1635'
p910
S'412-1338'
p911
sS'78457'
p912
S'600-1356'
p913
sS'43336'
p914
S'1512-1850'
p915
sS'81113'
p916
S'1817-1541'
p917
sS'114424'
p918
S'1617-564'
p919
sS'78296'
p920
S'2119-784'
p921
sS'583507'
p922
S'2209-1411'
p923
sS'33841'
p924
S'1342-1038'
p925
sS'925293'
p926
S'1528-1693'
p927
sS'366342'
p928
S'2226-1228'
p929
sS'164080'
p930
S'1640-427'
p931
sS'174155'
p932
S'1301-1593'
p933
sS'725816'
p934
S'2035-1534'
p935
sS'794715'
p936
S'1497-901'
p937
sS'89905'
p938
S'1447-1768'
p939
sS'140623'
p940
S'1127-1801'
p941
sS'45489'
p942
S'1541-1531'
p943
sS'191010'
p944
S'1545-1512'
p945
sS'297989'
p946
S'1678-1265'
p947
sS'190544'
p948
S'2271-863'
p949
sS'420878'
p950
S'738-1588'
p951
sS'336307'
p952
S'1298-1649'
p953
sS'222924'
p954
S'1230-1822'
p955
sS'126299'
p956
S'1127-1645'
p957
sS'126297'
p958
S'1409-1045'
p959
sS'80799'
p960
S'1765-1876'
p961
sS'72113'
p962
S'1502-1594'
p963
sS'309120'
p964
S'2061-1484'
p965
sS'260796'
p966
S'1810-771'
p967
sS'67731'
p968
S'1873-937'
p969
sS'140444'
p970
S'1500-1053'
p971
sS'49331'
p972
S'1221-1616'
p973
sS'236293'
p974
S'1916-1379'
p975
sS'22344'
p976
S'1793-772'
p977
sS'293124'
p978
S'1526-1517'
p979
sS'294184'
p980
S'941-995'
p981
sS'100567'
p982
S'1713-941'
p983
sS'70176'
p984
S'1755-1661'
p985
sS'199278'
p986
S'1992-772'
p987
sS'138270'
p988
S'1883-819'
p989
sS'105264'
p990
S'1230-1636'
p991
s.