c__builtin__
set
p1
((lp2
(S'1356428'
p3
S'50886'
p4
tp5
a(S'925293'
p6
S'86406'
p7
tp8
a(S'77024'
p9
S'193832'
p10
tp11
a(S'34952'
p12
S'240996'
p13
tp14
a(S'45489'
p15
S'152999'
p16
tp17
a(S'594788'
p18
S'100010'
p19
tp20
a(S'14395'
p21
S'49331'
p22
tp23
a(S'1967422'
p24
S'1035999'
p25
tp26
a(S'110039'
p27
S'958215'
p28
tp29
a(S'113124'
p30
S'153504'
p31
tp32
a(S'196288'
p33
S'727818'
p34
tp35
a(S'1517127'
p36
S'652192'
p37
tp38
a(S'207150'
p39
S'779796'
p40
tp41
a(S'309811'
p42
S'28034'
p43
tp44
a(S'77617'
p45
S'337742'
p46
tp47
a(S'404010'
p48
S'1611542'
p49
tp50
a(S'6162'
p51
S'43336'
p52
tp53
a(S'36559'
p54
g52
tp55
a(S'321281'
p56
S'3471'
p57
tp58
a(S'174694'
p59
S'448638'
p60
tp61
a(S'222259'
p62
S'86148'
p63
tp64
a(S'140444'
p65
S'22903'
p66
tp67
a(S'374124'
p68
S'86484'
p69
tp70
a(g69
S'103618'
p71
tp72
a(g48
S'126299'
p73
tp74
a(S'455522'
p75
S'45336'
p76
tp77
a(S'76821'
p78
S'164080'
p79
tp80
a(S'33433'
p81
S'14390'
p82
tp83
a(S'701211'
p84
S'309071'
p85
tp86
a(S'24684'
p87
g62
tp88
a(g49
S'1177880'
p89
tp90
a(S'153024'
p91
S'42533'
p92
tp93
a(S'205683'
p94
g43
tp95
a(g19
g18
tp96
a(S'248226'
p97
S'87054'
p98
tp99
a(S'8061'
p100
S'760360'
p101
tp102
a(S'18356'
p103
S'107097'
p104
tp105
a(S'80788'
p106
S'213907'
p107
tp108
a(S'459195'
p109
S'653663'
p110
tp111
a(S'16754'
p112
S'163125'
p113
tp114
a(S'126297'
p115
S'1884815'
p116
tp117
a(S'15143'
p118
S'55735'
p119
tp120
a(S'191010'
p121
g15
tp122
a(g92
g91
tp123
a(S'62038'
p124
S'91946'
p125
tp126
a(g98
g97
tp127
a(S'28176'
p128
g66
tp129
a(g79
g78
tp130
a(g87
g76
tp131
a(S'82704'
p132
S'1938480'
p133
tp134
a(g52
g51
tp135
a(S'1958346'
p136
S'64571'
p137
tp138
a(S'10257'
p139
S'143316'
p140
tp141
a(g107
S'160629'
p142
tp143
a(S'270190'
p144
S'1453603'
p145
tp146
a(S'53733'
p147
g91
tp148
a(S'67256'
p149
S'221099'
p150
tp151
a(g115
S'83951'
p152
tp153
a(g57
S'297989'
p154
tp155
a(g28
S'14440'
p156
tp157
a(g65
g69
tp158
a(S'897962'
p159
S'1460883'
p160
tp161
a(S'135968'
p162
g3
tp163
a(g6
S'481093'
p164
tp165
a(g92
S'301451'
p166
tp167
a(S'1962294'
p168
S'1442163'
p169
tp170
a(S'271816'
p171
S'8448'
p172
tp173
a(S'334743'
p174
g42
tp175
a(S'227356'
p176
S'406255'
p177
tp178
a(S'22344'
p179
S'218977'
p180
tp181
a(S'1935888'
p182
S'193555'
p183
tp184
a(g125
S'73729'
p185
tp186
a(g16
S'107763'
p187
tp188
a(g171
S'832291'
p189
tp190
a(S'168997'
p191
S'1350145'
p192
tp193
a(S'76989'
p194
S'65607'
p195
tp196
a(g42
S'284071'
p197
tp198
a(g28
g27
tp199
a(g174
S'165965'
p200
tp201
a(S'1337641'
p202
S'1436199'
p203
tp204
a(S'485051'
p205
S'1949595'
p206
tp207
a(S'639658'
p208
S'159744'
p209
tp210
a(g140
g139
tp211
a(g142
g107
tp212
a(g160
g159
tp213
a(S'173065'
p214
g52
tp215
a(g13
S'5136'
p216
tp217
a(S'359067'
p218
S'2910'
p219
tp220
a(g189
g171
tp221
a(S'35624'
p222
S'41773'
p223
tp224
a(g68
g71
tp225
a(g197
g200
tp226
a(S'358947'
p227
g89
tp228
a(g154
g57
tp229
a(S'37434'
p230
S'115950'
p231
tp232
a(g159
S'972663'
p233
tp234
a(S'87751'
p235
S'260796'
p236
tp237
a(S'16683'
p238
S'26321'
p239
tp240
a(g113
g112
tp241
a(S'293819'
p242
S'26596'
p243
tp244
a(g133
S'195344'
p245
tp246
a(g43
g42
tp247
a(S'315165'
p248
S'1635'
p249
tp250
a(g227
g48
tp251
a(g197
g42
tp252
a(g203
g202
tp253
a(g18
S'47794'
p254
tp255
a(S'66019'
p256
S'228568'
p257
tp258
a(g121
g16
tp259
a(g25
g24
tp260
a(g107
S'955828'
p261
tp262
a(S'34012'
p263
g206
tp264
a(S'111351'
p265
g22
tp266
a(g236
g180
tp267
a(g69
g128
tp268
a(S'106638'
p269
S'20405'
p270
tp271
a(S'1054215'
p272
S'63729'
p273
tp274
a(S'10212'
p275
S'4490'
p276
tp277
a(S'222907'
p278
S'1990551'
p279
tp280
a(g19
g254
tp281
a(g233
g160
tp282
a(g239
S'238898'
p283
tp284
a(S'1312933'
p285
S'763584'
p286
tp287
a(g76
g75
tp288
a(S'582439'
p289
S'191222'
p290
tp291
a(S'179722'
p292
g187
tp293
a(g98
g168
tp294
a(g101
g100
tp295
a(g206
g205
tp296
a(S'12486'
p297
g180
tp298
a(S'194983'
p299
S'73473'
p300
tp301
a(S'345480'
p302
g103
tp303
a(g66
g65
tp304
a(g177
g176
tp305
a(g168
g98
tp306
a(S'268102'
p307
S'1967784'
p308
tp309
a(g171
S'60139'
p310
tp311
a(S'160582'
p312
S'293124'
p313
tp314
a(g145
g144
tp315
a(g10
g9
tp316
a(g104
g302
tp317
a(g109
g101
tp318
a(g150
g182
tp319
a(g49
g73
tp320
a(S'26724'
p321
g297
tp322
a(g52
S'295562'
p323
tp324
a(g223
g222
tp325
a(g194
S'204474'
p326
tp327
a(S'45430'
p328
S'1297561'
p329
tp330
a(g15
g121
tp331
a(S'138270'
p332
g81
tp333
a(S'295262'
p334
S'982803'
p335
tp336
a(g30
S'138644'
p337
tp338
a(g62
g75
tp339
a(g104
g103
tp340
a(S'1936002'
p341
S'145703'
p342
tp343
a(S'562784'
p344
S'90089'
p345
tp346
a(g103
g302
tp347
a(S'1017951'
p348
g283
tp349
a(g180
g297
tp350
a(g128
g69
tp351
a(g37
g36
tp352
a(g62
g87
tp353
a(g310
g172
tp354
a(g273
g272
tp355
a(g236
g235
tp356
a(g52
g54
tp357
a(S'92491'
p358
S'126100'
p359
tp360
a(g156
S'1482686'
p361
tp362
a(g48
g227
tp363
a(S'126771'
p364
S'167230'
p365
tp366
a(g97
g169
tp367
a(g48
g89
tp368
a(g13
g12
tp369
a(g200
g43
tp370
a(g76
g63
tp371
a(g60
g59
tp372
a(g249
g248
tp373
a(g300
g299
tp374
a(g110
g101
tp375
a(g337
g30
tp376
a(g59
S'128581'
p377
tp378
a(g56
g154
tp379
a(g63
g62
tp380
a(g359
g137
tp381
a(g97
g168
tp382
a(g98
g169
tp383
a(g49
g227
tp384
a(S'576155'
p385
g342
tp386
a(g180
g236
tp387
a(S'1980773'
p388
g152
tp389
a(g43
g94
tp390
a(g292
S'1959759'
p391
tp392
a(S'236293'
p393
S'9036'
p394
tp395
a(S'806587'
p396
S'33368'
p397
tp398
a(S'706'
p399
g45
tp400
a(g31
g30
tp401
a(g254
g18
tp402
a(g27
g156
tp403
a(g180
g179
tp404
a(g270
g269
tp405
a(g242
S'13832'
p406
tp407
a(g91
g147
tp408
a(g66
g71
tp409
a(S'26934'
p410
g106
tp411
a(S'106039'
p412
g45
tp413
a(g183
g182
tp414
a(g7
g6
tp415
a(g71
g68
tp416
a(g60
g377
tp417
a(g308
g307
tp418
a(g227
g49
tp419
a(g321
S'574963'
p420
tp421
a(g394
g393
tp422
a(g27
g361
tp423
a(S'141128'
p424
S'291142'
p425
tp426
a(S'300162'
p427
g109
tp428
a(g187
g292
tp429
a(g100
g109
tp430
a(g345
S'1238843'
p431
tp432
a(g109
g100
tp433
a(g359
g136
tp434
a(g65
g71
tp435
a(g263
g205
tp436
a(g69
g65
tp437
a(g427
g100
tp438
a(g46
g399
tp439
a(g154
g56
tp440
a(S'730191'
p441
S'3774'
p442
tp443
a(S'8650'
p444
S'163665'
p445
tp446
a(g46
g45
tp447
a(g377
g60
tp448
a(g223
S'205146'
p449
tp450
a(g45
g412
tp451
a(g101
g110
tp452
a(S'336307'
p453
g341
tp454
a(g68
g65
tp455
a(g100
g110
tp456
a(S'95194'
p457
S'123925'
p458
tp459
a(g297
g321
tp460
a(S'155745'
p461
S'31674'
p462
tp463
a(g69
g66
tp464
a(g49
g48
tp465
a(S'1974848'
p466
S'156467'
p467
tp468
a(g359
g358
tp469
a(g65
g128
tp470
a(g185
g125
tp471
a(g4
g162
tp472
a(g467
g466
tp473
a(g3
g162
tp474
a(g52
g214
tp475
a(g276
g275
tp476
a(S'39522'
p477
S'191937'
p478
tp479
a(g160
g233
tp480
a(g189
g310
tp481
a(g150
g183
tp482
a(g66
g128
tp483
a(g442
g441
tp484
a(g223
S'15342'
p485
tp486
a(g431
g344
tp487
a(g152
g115
tp488
a(g183
g150
tp489
a(g75
g62
tp490
a(g43
g200
tp491
a(g449
g223
tp492
a(g313
g312
tp493
a(S'120059'
p494
g203
tp495
a(g133
g132
tp496
a(g203
g494
tp497
a(g172
g171
tp498
a(g209
g208
tp499
a(g137
g359
tp500
a(S'1405040'
p501
S'341627'
p502
tp503
a(g192
g191
tp504
a(g162
g4
tp505
a(S'261307'
p506
g218
tp507
a(g219
g218
tp508
a(g406
g242
tp509
a(g345
g344
tp510
a(g156
g28
tp511
a(g216
g13
tp512
a(g71
g69
tp513
a(g388
g116
tp514
a(g326
g194
tp515
a(g341
g453
tp516
a(g89
g49
tp517
a(g283
g348
tp518
a(g222
g449
tp519
a(S'70176'
p520
S'126289'
p521
tp522
a(S'406389'
p523
g337
tp524
a(S'32131'
p525
g394
tp526
a(g358
g136
tp527
a(g310
g171
tp528
a(g335
g334
tp529
a(g397
S'114716'
p530
tp531
a(g449
g222
tp532
a(g106
g410
tp533
a(g365
g364
tp534
a(g321
g179
tp535
a(g73
g48
tp536
a(g169
g98
tp537
a(g116
g388
tp538
a(g337
g523
tp539
a(g200
g197
tp540
a(g243
g406
tp541
a(g89
g227
tp542
a(g101
g109
tp543
a(g75
g87
tp544
a(g34
g33
tp545
a(S'20590'
p546
g269
tp547
a(g63
g76
tp548
a(g81
g332
tp549
a(g169
g168
tp550
a(g125
g124
tp551
a(g82
g81
tp552
a(g361
g28
tp553
a(g109
g427
tp554
a(g323
g52
tp555
a(g152
g388
tp556
a(g243
g242
tp557
a(g150
g149
tp558
a(g76
g87
tp559
a(g397
g396
tp560
a(g257
g256
tp561
a(g16
g15
tp562
a(g22
g265
tp563
a(g310
g189
tp564
a(g73
g89
tp565
a(g128
g65
tp566
a(g87
g75
tp567
a(g485
g223
tp568
a(g283
g239
tp569
a(g73
g49
tp570
a(g75
g63
tp571
a(g200
g42
tp572
a(g342
g385
tp573
a(g206
g263
tp574
a(g292
g121
tp575
a(g57
g56
tp576
a(g4
g3
tp577
a(g16
g121
tp578
a(g290
g289
tp579
a(S'1980123'
p580
S'33841'
p581
tp582
a(g581
g580
tp583
a(g187
g121
tp584
a(g431
g345
tp585
a(g40
g39
tp586
a(g87
g63
tp587
a(g245
g133
tp588
a(g54
g323
tp589
a(g546
g270
tp590
a(g137
g136
tp591
a(g502
g501
tp592
a(g71
g66
tp593
a(g28
S'49428'
p594
tp595
a(g169
g97
tp596
a(g394
g525
tp597
a(g200
g174
tp598
a(g37
S'37273'
p599
tp600
a(g399
g46
tp601
a(S'1134'
p602
g3
tp603
a(g425
g424
tp604
a(g361
g27
tp605
a(g22
g21
tp606
a(g523
g31
tp607
a(g393
g525
tp608
a(g62
g76
tp609
a(g233
g159
tp610
a(g136
g359
tp611
a(g36
g599
tp612
a(g172
g310
tp613
a(g45
g399
tp614
a(g182
g150
tp615
a(g107
g106
tp616
a(g142
g261
tp617
a(g261
g107
tp618
a(g462
g461
tp619
a(g458
g457
tp620
a(g279
g278
tp621
a(g323
g54
tp622
a(g391
g292
tp623
a(g168
g97
tp624
a(g136
g358
tp625
a(g85
g84
tp626
a(g115
g388
tp627
a(g388
g115
tp628
a(g445
g444
tp629
a(g179
g321
tp630
a(g63
g75
tp631
a(g3
g602
tp632
a(g69
g68
tp633
a(g42
g200
tp634
a(g254
g19
tp635
a(g478
g477
tp636
a(g329
g328
tp637
a(g89
g48
tp638
a(g66
g69
tp639
a(g119
g118
tp640
a(g377
g59
tp641
a(g263
S'1946001'
p642
tp643
a(g218
g506
tp644
a(g110
g100
tp645
a(g506
g219
tp646
a(g202
g494
tp647
a(g187
g16
tp648
a(g342
g341
tp649
a(g344
g431
tp650
a(g63
g87
tp651
a(g28
g361
tp652
a(g270
g546
tp653
a(g71
g65
tp654
a(g302
g104
tp655
a(g525
g393
tp656
a(g521
g520
tp657
a(g530
g397
tp658
a(g219
g506
tp659
a(g128
g71
tp660
a(g156
g27
tp661
a(g42
g174
tp662
a(g195
g194
tp663
a(g494
g202
tp664
a(g594
g28
tp665
a(g100
g427
tp666
a(g239
g238
tp667
a(g89
g73
tp668
a(g642
g263
tp669
a(g420
g321
tp670
a(g76
g62
tp671
a(g361
g156
tp672
a(g261
g142
tp673
a(g65
g68
tp674
a(g31
g523
tp675
a(g166
g92
tp676
a(g286
g285
tp677
a(g116
g115
tp678
a(g205
g263
tp679
a(g121
g292
tp680
a(g121
g187
tp681
a(g406
g243
tp682
a(g231
g230
tp683
a(g164
g6
tp684
a(g269
g546
tp685
a(g110
g109
tp686
a(g71
g128
tp687
a(g599
g36
tp688
a(g599
g37
tp689
atRp690
.