c__builtin__
set
p1
((lp2
(S'165965'
p3
S'28034'
p4
tp5
a(S'639658'
p6
S'159744'
p7
tp8
a(S'925293'
p9
S'86406'
p10
tp11
a(S'77024'
p12
S'193832'
p13
tp14
a(S'309811'
p15
g4
tp16
a(S'34952'
p17
S'240996'
p18
tp19
a(S'45489'
p20
S'152999'
p21
tp22
a(S'594788'
p23
S'100010'
p24
tp25
a(S'14395'
p26
S'49331'
p27
tp28
a(S'32131'
p29
S'236293'
p30
tp31
a(S'196288'
p32
S'727818'
p33
tp34
a(S'1517127'
p35
S'652192'
p36
tp37
a(S'406389'
p38
S'138644'
p39
tp40
a(S'334743'
p41
S'284071'
p42
tp43
a(S'77617'
p44
S'337742'
p45
tp46
a(S'404010'
p47
S'1611542'
p48
tp49
a(S'36559'
p50
S'43336'
p51
tp52
a(S'321281'
p53
S'3471'
p54
tp55
a(S'222259'
p56
S'86148'
p57
tp58
a(S'140444'
p59
S'22903'
p60
tp61
a(S'374124'
p62
S'86484'
p63
tp64
a(g63
S'103618'
p65
tp66
a(g47
S'126299'
p67
tp68
a(S'82704'
p69
S'195344'
p70
tp71
a(S'76821'
p72
S'164080'
p73
tp74
a(S'33433'
p75
S'14390'
p76
tp77
a(S'701211'
p78
S'309071'
p79
tp80
a(S'24684'
p81
g56
tp82
a(g48
S'1177880'
p83
tp84
a(S'251645'
p85
S'216476'
p86
tp87
a(S'205683'
p88
g4
tp89
a(g24
g23
tp90
a(S'126100'
p91
S'1958346'
p92
tp93
a(S'8061'
p94
S'760360'
p95
tp96
a(S'18356'
p97
S'107097'
p98
tp99
a(S'80788'
p100
S'213907'
p101
tp102
a(S'459195'
p103
S'653663'
p104
tp105
a(S'126297'
p106
S'1884815'
p107
tp108
a(S'15143'
p109
S'55735'
p110
tp111
a(S'191010'
p112
g20
tp113
a(S'62038'
p114
S'91946'
p115
tp116
a(S'87054'
p117
S'248226'
p118
tp119
a(S'28176'
p120
g60
tp121
a(g73
g72
tp122
a(g81
S'45336'
p123
tp124
a(g69
S'1938480'
p125
tp126
a(g92
S'64571'
p127
tp128
a(S'10257'
p129
S'143316'
p130
tp131
a(S'126289'
p132
S'179492'
p133
tp134
a(S'270190'
p135
S'1453603'
p136
tp137
a(S'53733'
p138
S'153024'
p139
tp140
a(S'67256'
p141
S'221099'
p142
tp143
a(g106
S'83951'
p144
tp145
a(g54
S'297989'
p146
tp147
a(S'958215'
p148
S'14440'
p149
tp150
a(g59
g63
tp151
a(S'897962'
p152
S'1460883'
p153
tp154
a(S'135968'
p155
S'1356428'
p156
tp157
a(g107
g106
tp158
a(S'271816'
p159
S'8448'
p160
tp161
a(g41
g15
tp162
a(S'227356'
p163
S'406255'
p164
tp165
a(S'22344'
p166
S'218977'
p167
tp168
a(S'1935888'
p169
S'193555'
p170
tp171
a(g115
S'73729'
p172
tp173
a(S'997257'
p174
g50
tp175
a(g159
S'832291'
p176
tp177
a(S'16683'
p178
S'26321'
p179
tp180
a(S'168997'
p181
S'1350145'
p182
tp183
a(S'76989'
p184
S'65607'
p185
tp186
a(g146
S'64324'
p187
tp188
a(g15
g42
tp189
a(g41
g3
tp190
a(S'1337641'
p191
S'1436199'
p192
tp193
a(S'485051'
p194
S'1949595'
p195
tp196
a(S'42533'
p197
S'301451'
p198
tp199
a(g130
g129
tp200
a(S'160629'
p201
g101
tp202
a(g153
g152
tp203
a(S'359067'
p204
S'2910'
p205
tp206
a(g18
S'5136'
p207
tp208
a(S'173065'
p209
g51
tp210
a(S'207150'
p211
S'779796'
p212
tp213
a(g176
g159
tp214
a(g62
g65
tp215
a(g42
g3
tp216
a(S'358947'
p217
g83
tp218
a(g146
g54
tp219
a(S'37434'
p220
S'115950'
p221
tp222
a(g152
S'972663'
p223
tp224
a(S'87751'
p225
S'260796'
p226
tp227
a(g101
g201
tp228
a(S'293819'
p229
S'26596'
p230
tp231
a(g125
g70
tp232
a(S'1442163'
p233
g117
tp234
a(g4
g15
tp235
a(S'315165'
p236
S'1635'
p237
tp238
a(g217
g47
tp239
a(g42
g15
tp240
a(S'67731'
p241
S'181694'
p242
tp243
a(g112
g21
tp244
a(S'49428'
p245
S'1482686'
p246
tp247
a(g70
g69
tp248
a(g101
S'955828'
p249
tp250
a(S'34012'
p251
g195
tp252
a(g226
g167
tp253
a(g63
g120
tp254
a(S'106638'
p255
S'20405'
p256
tp257
a(S'1054215'
p258
S'63729'
p259
tp260
a(S'10212'
p261
S'4490'
p262
tp263
a(S'26934'
p264
g100
tp265
a(S'222907'
p266
S'1990551'
p267
tp268
a(g24
S'47794'
p269
tp270
a(g223
g153
tp271
a(g179
S'238898'
p272
tp273
a(S'582439'
p274
S'191222'
p275
tp276
a(S'115505'
p277
S'176840'
p278
tp279
a(g123
g57
tp280
a(g117
S'1962294'
p281
tp282
a(g95
g94
tp283
a(g195
g194
tp284
a(S'12486'
p285
g167
tp286
a(S'194983'
p287
S'73473'
p288
tp289
a(S'345480'
p290
g97
tp291
a(g60
g59
tp292
a(g164
g163
tp293
a(g281
g117
tp294
a(S'268102'
p295
S'1967784'
p296
tp297
a(g159
S'60139'
p298
tp299
a(S'160582'
p300
S'293124'
p301
tp302
a(g136
g135
tp303
a(g182
S'196302'
p304
tp305
a(g13
g12
tp306
a(g98
g290
tp307
a(g103
g95
tp308
a(g142
g169
tp309
a(g48
g67
tp310
a(S'26724'
p311
g285
tp312
a(g184
S'204474'
p313
tp314
a(g166
g311
tp315
a(S'45430'
p316
S'1297561'
p317
tp318
a(g20
g112
tp319
a(S'138270'
p320
g75
tp321
a(S'295262'
p322
S'982803'
p323
tp324
a(g56
S'455522'
p325
tp326
a(g98
g97
tp327
a(S'1936002'
p328
S'145703'
p329
tp330
a(S'562784'
p331
S'90089'
p332
tp333
a(g97
g290
tp334
a(S'1017951'
p335
g272
tp336
a(g167
g285
tp337
a(g120
g63
tp338
a(g36
g35
tp339
a(g56
g81
tp340
a(g298
g160
tp341
a(g259
g258
tp342
a(g226
g225
tp343
a(g51
g50
tp344
a(S'92491'
p345
g91
tp346
a(S'295562'
p347
g209
tp348
a(g149
g246
tp349
a(g47
g217
tp350
a(S'126771'
p351
S'167230'
p352
tp353
a(g118
g233
tp354
a(g47
g83
tp355
a(g18
g17
tp356
a(g101
g100
tp357
a(g39
g38
tp358
a(g237
g236
tp359
a(g53
g187
tp360
a(g288
g287
tp361
a(S'248790'
p362
S'1067393'
p363
tp364
a(g39
S'113124'
p365
tp366
a(g53
g146
tp367
a(g57
g56
tp368
a(g242
g241
tp369
a(g91
g127
tp370
a(g118
g281
tp371
a(g117
g233
tp372
a(g48
g217
tp373
a(S'576155'
p374
g329
tp375
a(g167
g226
tp376
a(S'1980773'
p377
g144
tp378
a(g4
g88
tp379
a(S'179722'
p380
S'1959759'
p381
tp382
a(g30
S'9036'
p383
tp384
a(g133
g132
tp385
a(S'806587'
p386
S'33368'
p387
tp388
a(S'706'
p389
g44
tp390
a(S'110039'
p391
g149
tp392
a(g50
g174
tp393
a(g167
g166
tp394
a(g256
g255
tp395
a(g86
g85
tp396
a(g229
S'13832'
p397
tp398
a(g139
g138
tp399
a(g187
g53
tp400
a(g60
g65
tp401
a(g110
g109
tp402
a(S'106039'
p403
g44
tp404
a(g170
g169
tp405
a(g10
g9
tp406
a(g65
g62
tp407
a(S'448638'
p408
S'128581'
p409
tp410
a(g296
g295
tp411
a(g217
g48
tp412
a(g311
S'574963'
p413
tp414
a(g383
g30
tp415
a(g391
g246
tp416
a(S'141128'
p417
S'291142'
p418
tp419
a(S'300162'
p420
g103
tp421
a(g60
g63
tp422
a(S'107763'
p423
g380
tp424
a(g194
g251
tp425
a(g332
S'1238843'
p426
tp427
a(g103
g94
tp428
a(g118
g117
tp429
a(g59
g65
tp430
a(g251
g194
tp431
a(g63
g59
tp432
a(g420
g94
tp433
a(g45
g389
tp434
a(g146
g53
tp435
a(S'730191'
p436
S'3774'
p437
tp438
a(S'8650'
p439
S'163665'
p440
tp441
a(g45
g44
tp442
a(g409
g408
tp443
a(S'41773'
p444
S'205146'
p445
tp446
a(g44
g403
tp447
a(S'336307'
p448
g328
tp449
a(g62
g59
tp450
a(g94
g104
tp451
a(S'95194'
p452
S'123925'
p453
tp454
a(g285
g311
tp455
a(S'155745'
p456
S'31674'
p457
tp458
a(g63
g60
tp459
a(g48
g47
tp460
a(S'1974848'
p461
S'156467'
p462
tp463
a(S'78457'
p464
S'24714'
p465
tp466
a(g172
g115
tp467
a(S'50886'
p468
g155
tp469
a(g462
g461
tp470
a(g156
g155
tp471
a(g51
g209
tp472
a(g262
g261
tp473
a(S'39522'
p474
S'191937'
p475
tp476
a(g153
g223
tp477
a(g176
g298
tp478
a(g142
g170
tp479
a(g60
g120
tp480
a(g437
g436
tp481
a(g444
S'15342'
p482
tp483
a(g426
g331
tp484
a(g144
g106
tp485
a(g170
g142
tp486
a(g325
g56
tp487
a(g4
g3
tp488
a(g445
g444
tp489
a(g301
g300
tp490
a(S'354786'
p491
S'75439'
p492
tp493
a(S'120059'
p494
g192
tp495
a(g125
g69
tp496
a(g192
g494
tp497
a(g30
g29
tp498
a(g160
g159
tp499
a(S'850328'
p500
g144
tp501
a(g127
g91
tp502
a(S'1405040'
p503
S'341627'
p504
tp505
a(g205
S'261307'
p506
tp507
a(g182
g181
tp508
a(g155
g468
tp509
a(g506
g204
tp510
a(g205
g204
tp511
a(g397
g229
tp512
a(g332
g331
tp513
a(g468
g156
tp514
a(g83
g47
tp515
a(g465
g464
tp516
a(g65
g63
tp517
a(g209
g347
tp518
a(S'6162'
p519
g209
tp520
a(g377
g107
tp521
a(g313
g184
tp522
a(g328
g448
tp523
a(g83
g48
tp524
a(g272
g335
tp525
a(S'35624'
p526
g445
tp527
a(g365
g39
tp528
a(g29
g383
tp529
a(g345
g92
tp530
a(g298
g159
tp531
a(g323
g322
tp532
a(g387
S'114716'
p533
tp534
a(g178
g272
tp535
a(g445
g526
tp536
a(g100
g264
tp537
a(g352
g351
tp538
a(g311
g166
tp539
a(g230
g229
tp540
a(g187
g146
tp541
a(g209
g519
tp542
a(g107
g377
tp543
a(g192
g191
tp544
a(g3
g42
tp545
a(g448
g329
tp546
a(g230
g397
tp547
a(S'167138'
p548
S'218884'
p549
tp550
a(g83
g217
tp551
a(g95
g103
tp552
a(g325
g81
tp553
a(g33
g32
tp554
a(S'20590'
p555
g255
tp556
a(g57
g123
tp557
a(g75
g320
tp558
a(g233
g281
tp559
a(g549
g548
tp560
a(g7
g6
tp561
a(g115
g114
tp562
a(g272
g178
tp563
a(g76
g75
tp564
a(g246
g148
tp565
a(g103
g420
tp566
a(g144
g377
tp567
a(g59
g120
tp568
a(g142
g141
tp569
a(g123
g81
tp570
a(g387
g386
tp571
a(g187
g54
tp572
a(g21
g20
tp573
a(g298
g176
tp574
a(g67
g83
tp575
a(g120
g59
tp576
a(g81
g325
tp577
a(g482
g444
tp578
a(g272
g179
tp579
a(g67
g48
tp580
a(g325
g57
tp581
a(g3
g15
tp582
a(g329
g374
tp583
a(g195
g251
tp584
a(g67
g47
tp585
a(g54
g53
tp586
a(g91
g345
tp587
a(g21
g112
tp588
a(g275
g274
tp589
a(S'1980123'
p590
S'33841'
p591
tp592
a(g591
g590
tp593
a(g329
g448
tp594
a(g423
g112
tp595
a(g426
g332
tp596
a(g212
g211
tp597
a(g81
g57
tp598
a(g70
g125
tp599
a(g304
g182
tp600
a(S'105337'
p601
S'1426719'
p602
tp603
a(g555
g256
tp604
a(g127
g92
tp605
a(g504
g503
tp606
a(g65
g60
tp607
a(g148
g245
tp608
a(g233
g118
tp609
a(g383
g29
tp610
a(g3
g41
tp611
a(g36
S'37273'
p612
tp613
a(g389
g45
tp614
a(S'1134'
p615
g156
tp616
a(g50
g347
tp617
a(g418
g417
tp618
a(g246
g391
tp619
a(g27
g26
tp620
a(g506
g205
tp621
a(g444
g526
tp622
a(g209
g174
tp623
a(g56
g123
tp624
a(g223
g152
tp625
a(g92
g91
tp626
a(g35
g612
tp627
a(g160
g298
tp628
a(g44
g389
tp629
a(g169
g142
tp630
a(g201
g249
tp631
a(g249
g101
tp632
a(g457
g456
tp633
a(g453
g452
tp634
a(g267
g266
tp635
a(g347
g50
tp636
a(g381
g380
tp637
a(g281
g118
tp638
a(g92
g345
tp639
a(g79
g78
tp640
a(g106
g377
tp641
a(g602
g601
tp642
a(g377
g106
tp643
a(g156
g468
tp644
a(g380
g423
tp645
a(g440
g439
tp646
a(S'174694'
p647
g409
tp648
a(g57
g325
tp649
a(g156
g615
tp650
a(g63
g62
tp651
a(g15
g3
tp652
a(g269
g24
tp653
a(g475
g474
tp654
a(g317
g316
tp655
a(g149
g148
tp656
a(g54
g187
tp657
a(g363
g362
tp658
a(g409
g647
tp659
a(g251
S'1946001'
p660
tp661
a(g204
g506
tp662
a(g104
g94
tp663
a(g278
g277
tp664
a(g207
g18
tp665
a(g191
g494
tp666
a(g246
g245
tp667
a(g329
g328
tp668
a(g331
g426
tp669
a(g57
g81
tp670
a(g148
g246
tp671
a(g174
g209
tp672
a(g256
g555
tp673
a(g65
g59
tp674
a(g290
g98
tp675
a(g144
g500
tp676
a(g526
g444
tp677
a(g533
g387
tp678
a(g281
g233
tp679
a(g120
g65
tp680
a(g149
g391
tp681
a(g15
g41
tp682
a(g185
g184
tp683
a(g494
g191
tp684
a(g245
g148
tp685
a(g94
g420
tp686
a(g179
g178
tp687
a(g83
g67
tp688
a(g660
g251
tp689
a(g413
g311
tp690
a(g123
g56
tp691
a(g246
g149
tp692
a(g249
g201
tp693
a(g59
g62
tp694
a(g198
g197
tp695
a(g9
S'481093'
p696
tp697
a(g94
g103
tp698
a(g112
g423
tp699
a(g492
g491
tp700
a(g397
g230
tp701
a(g221
g220
tp702
a(g696
g9
tp703
a(g255
g555
tp704
a(g104
g103
tp705
a(g65
g120
tp706
a(g612
g35
tp707
a(g42
g41
tp708
a(g612
g36
tp709
atRp710
.