c__builtin__
set
p1
((lp2
(S'1356428'
p3
S'50886'
p4
tp5
a(S'639658'
p6
S'159744'
p7
tp8
a(S'84183'
p9
S'1970284'
p10
tp11
a(S'77024'
p12
S'193832'
p13
tp14
a(S'576155'
p15
S'1936002'
p16
tp17
a(S'594788'
p18
S'100010'
p19
tp20
a(S'6229'
p21
S'11667'
p22
tp23
a(g13
S'319566'
p24
tp25
a(S'47794'
p26
S'207150'
p27
tp28
a(S'14395'
p29
S'49331'
p30
tp31
a(S'1967422'
p32
S'1035999'
p33
tp34
a(S'110039'
p35
S'958215'
p36
tp37
a(S'113124'
p38
S'153504'
p39
tp40
a(S'196288'
p41
S'727818'
p42
tp43
a(S'1517127'
p44
S'652192'
p45
tp46
a(S'382210'
p47
S'239628'
p48
tp49
a(S'77617'
p50
S'337742'
p51
tp52
a(S'140444'
p53
S'103618'
p54
tp55
a(S'1405040'
p56
S'216476'
p57
tp58
a(S'35350'
p59
S'1453603'
p60
tp61
a(S'321281'
p62
S'3471'
p63
tp64
a(g57
S'296634'
p65
tp66
a(S'222259'
p67
S'86148'
p68
tp69
a(S'1134'
p70
S'135968'
p71
tp72
a(S'22903'
p73
S'374124'
p74
tp75
a(g74
S'86484'
p76
tp77
a(S'82704'
p78
S'195344'
p79
tp80
a(S'455522'
p81
S'45336'
p82
tp83
a(S'76821'
p84
S'164080'
p85
tp86
a(S'33433'
p87
S'14390'
p88
tp89
a(S'701211'
p90
S'309071'
p91
tp92
a(S'1611542'
p93
S'1177880'
p94
tp95
a(S'321223'
p96
S'1054215'
p97
tp98
a(S'205683'
p99
S'28034'
p100
tp101
a(g19
g18
tp102
a(S'126100'
p103
S'1958346'
p104
tp105
a(S'231565'
p106
S'107097'
p107
tp108
a(S'18356'
p109
g107
tp110
a(S'295562'
p111
S'6162'
p112
tp113
a(g29
S'111351'
p114
tp115
a(g71
S'237857'
p116
tp117
a(S'16754'
p118
S'163125'
p119
tp120
a(S'251645'
p121
S'435026'
p122
tp123
a(S'15143'
p124
S'55735'
p125
tp126
a(S'191010'
p127
S'45489'
p128
tp129
a(S'76989'
p130
S'1179102'
p131
tp132
a(S'653663'
p133
S'138644'
p134
tp135
a(S'42533'
p136
S'153024'
p137
tp138
a(S'3774'
p139
S'257337'
p140
tp141
a(S'87054'
p142
S'248226'
p143
tp144
a(S'174694'
p145
S'341627'
p146
tp147
a(S'28176'
p148
g73
tp149
a(g85
g84
tp150
a(g15
S'336307'
p151
tp152
a(S'24684'
p153
g82
tp154
a(g78
S'1938480'
p155
tp156
a(S'73473'
p157
S'92491'
p158
tp159
a(g104
S'64571'
p160
tp161
a(S'270190'
p162
g60
tp163
a(S'67256'
p164
S'221099'
p165
tp166
a(S'1935888'
p167
g164
tp168
a(S'39929'
p169
g93
tp170
a(S'126297'
p171
S'83951'
p172
tp173
a(g36
S'14440'
p174
tp175
a(g27
g26
tp176
a(S'26321'
p177
S'16683'
p178
tp179
a(g71
g3
tp180
a(S'925293'
p181
S'481093'
p182
tp183
a(S'271816'
p184
S'8448'
p185
tp186
a(S'334743'
p187
S'309811'
p188
tp189
a(S'227356'
p190
S'406255'
p191
tp192
a(S'22344'
p193
S'218977'
p194
tp195
a(g167
S'193555'
p196
tp197
a(S'91946'
p198
S'73729'
p199
tp200
a(g51
g50
tp201
a(g184
S'832291'
p202
tp203
a(S'406389'
p204
g38
tp205
a(g178
g177
tp206
a(g130
S'65607'
p207
tp208
a(g143
S'1442163'
p209
tp210
a(S'128581'
p211
S'448638'
p212
tp213
a(S'168207'
p214
S'358441'
p215
tp216
a(S'358947'
p217
g169
tp218
a(S'485051'
p219
S'1949595'
p220
tp221
a(g136
S'301451'
p222
tp223
a(S'173065'
p224
S'43336'
p225
tp226
a(S'1073960'
p227
S'108212'
p228
tp229
a(S'359067'
p230
S'2910'
p231
tp232
a(S'1412122'
p233
S'57934'
p234
tp235
a(g202
g184
tp236
a(g74
g54
tp237
a(S'284071'
p238
S'165965'
p239
tp240
a(S'26724'
p241
S'12486'
p242
tp243
a(S'37434'
p244
S'115950'
p245
tp246
a(S'897962'
p247
S'972663'
p248
tp249
a(S'87751'
p250
S'260796'
p251
tp252
a(S'982803'
p253
S'295262'
p254
tp255
a(g119
g118
tp256
a(S'293819'
p257
S'26596'
p258
tp259
a(g155
g79
tp260
a(g100
g188
tp261
a(g238
g188
tp262
a(S'67731'
p263
S'181694'
p264
tp265
a(S'20122'
p266
g196
tp267
a(g127
S'152999'
p268
tp269
a(g33
g32
tp270
a(S'38203'
p271
S'268102'
p272
tp273
a(g79
g78
tp274
a(S'34012'
p275
g220
tp276
a(g114
g30
tp277
a(g94
g169
tp278
a(g251
g194
tp279
a(S'107763'
p280
S'1959759'
p281
tp282
a(S'105264'
p283
g185
tp284
a(S'26934'
p285
S'80788'
p286
tp287
a(S'222907'
p288
S'1990551'
p289
tp290
a(S'1312933'
p291
S'763584'
p292
tp293
a(g82
g81
tp294
a(S'179722'
p295
g280
tp296
a(g222
g137
tp297
a(g220
g219
tp298
a(g242
g194
tp299
a(S'194983'
p300
g157
tp301
a(S'345480'
p302
g109
tp303
a(g10
g9
tp304
a(g73
g53
tp305
a(g191
g190
tp306
a(S'1962294'
p307
g142
tp308
a(S'205146'
p309
S'15342'
p310
tp311
a(g272
S'1967784'
p312
tp313
a(g184
S'60139'
p314
tp315
a(S'160582'
p316
S'293124'
p317
tp318
a(g60
g162
tp319
a(g13
g12
tp320
a(g107
g302
tp321
a(g165
g167
tp322
a(S'1297561'
p323
S'251378'
p324
tp325
a(S'81333'
p326
g13
tp327
a(S'138270'
p328
g88
tp329
a(g130
S'204474'
p330
tp331
a(g193
g241
tp332
a(S'1426719'
p333
S'677164'
p334
tp335
a(g128
g127
tp336
a(g254
g253
tp337
a(S'435269'
p338
g245
tp339
a(g107
g109
tp340
a(g24
g13
tp341
a(S'562784'
p342
S'90089'
p343
tp344
a(g109
g302
tp345
a(g140
g139
tp346
a(S'1017951'
p347
S'238898'
p348
tp349
a(g116
g3
tp350
a(g194
g242
tp351
a(g188
g100
tp352
a(g45
g44
tp353
a(g112
S'36559'
p354
tp355
a(g314
g185
tp356
a(g251
g250
tp357
a(g158
g103
tp358
a(g174
S'1482686'
p359
tp360
a(S'126771'
p361
S'167230'
p362
tp363
a(g188
g238
tp364
a(g162
g59
tp365
a(S'404010'
p366
g94
tp367
a(g53
g73
tp368
a(g13
g326
tp369
a(g158
g157
tp370
a(g82
g68
tp371
a(g118
g211
tp372
a(g136
S'53733'
p373
tp374
a(S'18484'
p375
S'203661'
p376
tp377
a(g157
g300
tp378
a(S'248790'
p379
S'1067393'
p380
tp381
a(g151
g15
tp382
a(g133
S'760360'
p383
tp384
a(g48
g47
tp385
a(g137
g222
tp386
a(g7
S'316746'
p387
tp388
a(g68
g67
tp389
a(g264
g263
tp390
a(g74
g73
tp391
a(g143
g307
tp392
a(g142
g209
tp393
a(S'66019'
p394
S'228568'
p395
tp396
a(g199
S'62038'
p397
tp398
a(g93
g217
tp399
a(g169
g94
tp400
a(g194
g251
tp401
a(S'1980773'
p402
g172
tp403
a(g100
g99
tp404
a(g295
g281
tp405
a(S'236293'
p406
S'9036'
p407
tp408
a(S'5136'
p409
S'34952'
p410
tp411
a(g39
g38
tp412
a(g112
g111
tp413
a(g35
g174
tp414
a(g234
g233
tp415
a(S'1634439'
p416
g209
tp417
a(g59
g162
tp418
a(g257
S'13832'
p419
tp420
a(g73
g54
tp421
a(g125
g124
tp422
a(S'106039'
p423
g50
tp424
a(g196
g167
tp425
a(S'86406'
p426
g181
tp427
a(g215
g214
tp428
a(g54
g74
tp429
a(g107
g106
tp430
a(S'31990'
p431
g153
tp432
a(g212
g211
tp433
a(g312
g272
tp434
a(g217
g93
tp435
a(g241
S'574963'
p436
tp437
a(g407
g406
tp438
a(g74
g148
tp439
a(g419
g257
tp440
a(S'141128'
p441
S'291142'
p442
tp443
a(g395
g394
tp444
a(g137
g136
tp445
a(g73
g76
tp446
a(g67
g431
tp447
a(g280
g295
tp448
a(S'8061'
p449
S'459195'
p450
tp451
a(g343
S'1238843'
p452
tp453
a(g16
g15
tp454
a(g450
g449
tp455
a(g143
g142
tp456
a(g366
g93
tp457
a(g217
g94
tp458
a(g275
g219
tp459
a(S'300162'
p460
g449
tp461
a(g383
g460
tp462
a(g51
S'706'
p463
tp464
a(S'730191'
p465
g139
tp466
a(g268
g280
tp467
a(g36
g35
tp468
a(S'41773'
p469
g309
tp470
a(g50
g423
tp471
a(g383
g133
tp472
a(g71
g70
tp473
a(g151
g16
tp474
a(g74
g53
tp475
a(S'278573'
p476
S'1283058'
p477
tp478
a(g242
g241
tp479
a(S'146350'
p480
S'174155'
p481
tp482
a(g30
g114
tp483
a(S'155745'
p484
S'31674'
p485
tp486
a(g76
g73
tp487
a(g93
g366
tp488
a(S'1974848'
p489
S'156467'
p490
tp491
a(S'10257'
p492
S'411369'
p493
tp494
a(S'78457'
p495
S'24714'
p496
tp497
a(g199
g198
tp498
a(g4
g71
tp499
a(g490
g489
tp500
a(g3
g71
tp501
a(g225
g224
tp502
a(g202
g314
tp503
a(g219
g275
tp504
a(g165
g196
tp505
a(g73
g148
tp506
a(g209
g416
tp507
a(g310
g309
tp508
a(g38
g204
tp509
a(g139
g465
tp510
a(g469
g310
tp511
a(g12
g24
tp512
a(g452
g342
tp513
a(g172
g171
tp514
a(g196
g165
tp515
a(S'806587'
p516
S'33368'
p517
tp518
a(g309
g469
tp519
a(g334
g333
tp520
a(g317
g316
tp521
a(S'354786'
p522
S'75439'
p523
tp524
a(g410
g409
tp525
a(g155
g78
tp526
a(g65
g57
tp527
a(g185
g184
tp528
a(g7
g6
tp529
a(g160
g103
tp530
a(g134
g133
tp531
a(g164
g167
tp532
a(g153
g431
tp533
a(g281
g280
tp534
a(g114
g29
tp535
a(g71
g4
tp536
a(g220
S'1946001'
p537
tp538
a(g122
g121
tp539
a(g142
g307
tp540
a(S'261307'
p541
g230
tp542
a(g116
g71
tp543
a(g231
g230
tp544
a(g343
g342
tp545
a(g431
g67
tp546
a(g174
g36
tp547
a(g541
g231
tp548
a(g185
g283
tp549
a(g330
g130
tp550
a(g16
g151
tp551
a(g94
g93
tp552
a(g348
g347
tp553
a(g181
g426
tp554
a(S'70176'
p555
S'126289'
p556
tp557
a(g258
g257
tp558
a(g228
g227
tp559
a(g239
g188
tp560
a(S'32131'
p561
g407
tp562
a(g314
g184
tp563
a(g376
g375
tp564
a(g244
g338
tp565
a(g387
g7
tp566
a(g286
g285
tp567
a(g362
g361
tp568
a(S'143316'
p569
g258
tp570
a(g245
g338
tp571
a(g241
g193
tp572
a(g272
g271
tp573
a(g146
g145
tp574
a(g209
g142
tp575
a(g537
g220
tp576
a(g239
g238
tp577
a(g397
g198
tp578
a(g258
g419
tp579
a(g94
g217
tp580
a(g97
g96
tp581
a(g42
g41
tp582
a(g68
g82
tp583
a(g460
g383
tp584
a(g324
g323
tp585
a(g198
g397
tp586
a(g271
g312
tp587
a(g88
g87
tp588
a(g359
g36
tp589
a(g338
g244
tp590
a(g172
g402
tp591
a(g53
g148
tp592
a(g70
g4
tp593
a(g103
g158
tp594
a(g258
g569
tp595
a(g82
g153
tp596
a(g517
g516
tp597
a(g196
g266
tp598
a(g359
g174
tp599
a(g131
g130
tp600
a(g397
g199
tp601
a(g268
g295
tp602
a(g314
g202
tp603
a(g373
g136
tp604
a(g148
g53
tp605
a(g310
g469
tp606
a(g81
g68
tp607
a(g148
g74
tp608
a(S'305975'
p609
S'294184'
p610
tp611
a(g220
g275
tp612
a(g295
g127
tp613
a(g63
g62
tp614
a(g4
g3
tp615
a(g268
g127
tp616
a(g452
g343
tp617
a(g537
S'738505'
p618
tp619
a(g153
g68
tp620
a(g209
g143
tp621
a(g165
g164
tp622
a(g354
g111
tp623
a(g24
g12
tp624
a(g477
g476
tp625
a(g160
g104
tp626
a(g54
g73
tp627
a(g169
g217
tp628
a(g79
g155
tp629
a(g407
g561
tp630
a(g39
g204
tp631
a(g45
S'37273'
p632
tp633
a(g618
g537
tp634
a(g463
g51
tp635
a(g70
g3
tp636
a(g442
g441
tp637
a(g57
g56
tp638
a(g30
g29
tp639
a(g204
g39
tp640
a(g406
g561
tp641
a(g22
g21
tp642
a(g67
g82
tp643
a(g248
g247
tp644
a(g104
g103
tp645
a(g44
g632
tp646
a(g185
g314
tp647
a(g60
g59
tp648
a(g245
g244
tp649
a(g167
g165
tp650
a(g485
g484
tp651
a(g289
g288
tp652
a(g111
g354
tp653
a(g281
g295
tp654
a(g307
g143
tp655
a(g91
g90
tp656
a(g171
g402
tp657
a(g402
g171
tp658
a(g194
g193
tp659
a(g493
g492
tp660
a(g354
g112
tp661
a(g103
g160
tp662
a(g68
g81
tp663
a(g3
g70
tp664
a(g76
g74
tp665
a(g188
g239
tp666
a(g4
g70
tp667
a(g211
g118
tp668
a(g94
g366
tp669
a(g380
g379
tp670
a(g275
g537
tp671
a(g230
g541
tp672
a(g496
g495
tp673
a(S'1337641'
p674
S'120059'
p675
tp676
a(g280
g268
tp677
a(g342
g452
tp678
a(g68
g153
tp679
a(g36
g359
tp680
a(g3
g116
tp681
a(g54
g53
tp682
a(g302
g107
tp683
a(g561
g406
tp684
a(g610
g609
tp685
a(g268
g281
tp686
a(g556
g555
tp687
a(g295
g268
tp688
a(g481
g480
tp689
a(g231
g541
tp690
a(g174
g35
tp691
a(g188
g187
tp692
a(g207
g130
tp693
a(g675
g674
tp694
a(g449
g460
tp695
a(g99
g187
tp696
a(g537
g275
tp697
a(g436
g241
tp698
a(g281
g268
tp699
a(g93
g169
tp700
a(g82
g67
tp701
a(g187
g100
tp702
a(g53
g74
tp703
a(g207
g330
tp704
a(g222
g136
tp705
a(g292
g291
tp706
a(g100
g187
tp707
a(g127
g295
tp708
a(g523
g522
tp709
a(g187
g99
tp710
a(g419
g258
tp711
a(g312
g271
tp712
a(g88
g328
tp713
a(g330
g207
tp714
a(g182
g181
tp715
a(g632
g44
tp716
a(g632
g45
tp717
atRp718
.