c__builtin__
set
p1
((lp2
(S'1356428'
p3
S'50886'
p4
tp5
a(S'925293'
p6
S'86406'
p7
tp8
a(S'77024'
p9
S'193832'
p10
tp11
a(S'34952'
p12
S'240996'
p13
tp14
a(S'45489'
p15
S'152999'
p16
tp17
a(S'576155'
p18
S'1936002'
p19
tp20
a(S'594788'
p21
S'100010'
p22
tp23
a(S'14395'
p24
S'49331'
p25
tp26
a(S'1967422'
p27
S'1035999'
p28
tp29
a(S'110039'
p30
S'958215'
p31
tp32
a(S'113124'
p33
S'153504'
p34
tp35
a(S'639658'
p36
S'159744'
p37
tp38
a(S'1517127'
p39
S'652192'
p40
tp41
a(S'382210'
p42
S'239628'
p43
tp44
a(S'28176'
p45
S'86484'
p46
tp47
a(S'77617'
p48
S'337742'
p49
tp50
a(S'404010'
p51
S'1611542'
p52
tp53
a(S'6162'
p54
S'43336'
p55
tp56
a(S'36559'
p57
g55
tp58
a(S'321281'
p59
S'3471'
p60
tp61
a(S'222259'
p62
S'86148'
p63
tp64
a(S'140444'
p65
S'22903'
p66
tp67
a(S'374124'
p68
g46
tp69
a(g46
S'103618'
p70
tp71
a(g51
S'126299'
p72
tp73
a(S'82704'
p74
S'195344'
p75
tp76
a(S'455522'
p77
S'45336'
p78
tp79
a(S'76821'
p80
S'164080'
p81
tp82
a(S'33433'
p83
S'14390'
p84
tp85
a(S'701211'
p86
S'309071'
p87
tp88
a(S'24684'
p89
g62
tp90
a(g52
S'1177880'
p91
tp92
a(S'153024'
p93
S'42533'
p94
tp95
a(S'205683'
p96
S'28034'
p97
tp98
a(g22
g21
tp99
a(S'248226'
p100
S'87054'
p101
tp102
a(S'8061'
p103
S'760360'
p104
tp105
a(S'18356'
p106
S'107097'
p107
tp108
a(S'80788'
p109
S'213907'
p110
tp111
a(S'16754'
p112
S'163125'
p113
tp114
a(S'126297'
p115
S'1884815'
p116
tp117
a(S'15143'
p118
S'55735'
p119
tp120
a(S'191010'
p121
g15
tp122
a(g94
g93
tp123
a(S'62038'
p124
S'91946'
p125
tp126
a(g101
g100
tp127
a(S'1482686'
p128
g30
tp129
a(g81
g80
tp130
a(g89
g78
tp131
a(g74
S'1938480'
p132
tp133
a(g55
g54
tp134
a(S'1958346'
p135
S'64571'
p136
tp137
a(S'10257'
p138
S'143316'
p139
tp140
a(S'270190'
p141
S'1453603'
p142
tp143
a(S'53733'
p144
g93
tp145
a(S'67256'
p146
S'221099'
p147
tp148
a(g115
S'83951'
p149
tp150
a(g60
S'297989'
p151
tp152
a(g31
S'14440'
p153
tp154
a(g65
g46
tp155
a(S'897962'
p156
S'1460883'
p157
tp158
a(S'135968'
p159
g3
tp160
a(g116
g115
tp161
a(g94
S'301451'
p162
tp163
a(S'271816'
p164
S'8448'
p165
tp166
a(S'334743'
p167
S'309811'
p168
tp169
a(S'227356'
p170
S'406255'
p171
tp172
a(S'22344'
p173
S'218977'
p174
tp175
a(S'1935888'
p176
S'193555'
p177
tp178
a(g125
S'73729'
p179
tp180
a(g49
g48
tp181
a(g164
S'832291'
p182
tp183
a(S'406389'
p184
g33
tp185
a(S'168997'
p186
S'1350145'
p187
tp188
a(S'76989'
p189
S'65607'
p190
tp191
a(g168
S'284071'
p192
tp193
a(S'128581'
p194
S'448638'
p195
tp196
a(g167
S'165965'
p197
tp198
a(S'1337641'
p199
S'1436199'
p200
tp201
a(S'485051'
p202
S'1949595'
p203
tp204
a(S'196288'
p205
S'727818'
p206
tp207
a(g139
g138
tp208
a(g157
g156
tp209
a(S'173065'
p210
g55
tp211
a(g13
S'5136'
p212
tp213
a(S'359067'
p214
S'2910'
p215
tp216
a(S'1412122'
p217
S'57934'
p218
tp219
a(g182
g164
tp220
a(g68
g70
tp221
a(g192
g197
tp222
a(S'358947'
p223
g91
tp224
a(g151
g60
tp225
a(S'37434'
p226
S'115950'
p227
tp228
a(g156
S'972663'
p229
tp230
a(S'87751'
p231
S'260796'
p232
tp233
a(S'336307'
p234
g19
tp235
a(g113
g112
tp236
a(S'293819'
p237
S'26596'
p238
tp239
a(g132
g75
tp240
a(S'1442163'
p241
g101
tp242
a(g97
g168
tp243
a(S'315165'
p244
S'1635'
p245
tp246
a(g223
g51
tp247
a(g192
g168
tp248
a(S'67731'
p249
S'181694'
p250
tp251
a(g21
S'47794'
p252
tp253
a(S'66019'
p254
S'228568'
p255
tp256
a(g121
g16
tp257
a(S'278573'
p258
S'1283058'
p259
tp260
a(g28
g27
tp261
a(g75
g74
tp262
a(g110
S'955828'
p263
tp264
a(S'34012'
p265
g203
tp266
a(S'111351'
p267
g25
tp268
a(g232
g174
tp269
a(g46
g45
tp270
a(S'106638'
p271
S'20405'
p272
tp273
a(S'1054215'
p274
S'63729'
p275
tp276
a(g52
g72
tp277
a(S'26934'
p278
g109
tp279
a(S'222907'
p280
S'1990551'
p281
tp282
a(g22
g252
tp283
a(g229
g157
tp284
a(S'26321'
p285
S'238898'
p286
tp287
a(S'1312933'
p288
S'763584'
p289
tp290
a(g78
g77
tp291
a(g33
g184
tp292
a(g101
S'1962294'
p293
tp294
a(g104
g103
tp295
a(g203
g202
tp296
a(S'12486'
p297
g174
tp298
a(S'194983'
p299
S'73473'
p300
tp301
a(S'295562'
p302
g57
tp303
a(g66
g65
tp304
a(g171
g170
tp305
a(g293
g101
tp306
a(S'205146'
p307
S'15342'
p308
tp309
a(S'268102'
p310
S'1967784'
p311
tp312
a(g164
S'60139'
p313
tp314
a(S'160582'
p315
S'293124'
p316
tp317
a(g142
g141
tp318
a(g10
g9
tp319
a(g107
S'345480'
p320
tp321
a(S'459195'
p322
g104
tp323
a(g147
g176
tp324
a(S'26724'
p325
g297
tp326
a(g55
g302
tp327
a(S'138270'
p328
g84
tp329
a(g189
S'204474'
p330
tp331
a(g173
g325
tp332
a(S'45430'
p333
S'1297561'
p334
tp335
a(g15
g121
tp336
a(g33
S'138644'
p337
tp338
a(g62
g77
tp339
a(g107
g106
tp340
a(g19
S'145703'
p341
tp342
a(S'562784'
p343
S'90089'
p344
tp345
a(g106
g320
tp346
a(S'1017951'
p347
g286
tp348
a(g174
g297
tp349
a(g168
g97
tp350
a(g40
g39
tp351
a(g62
g89
tp352
a(g313
g165
tp353
a(g275
g274
tp354
a(g232
g231
tp355
a(g55
g57
tp356
a(S'92491'
p357
S'126100'
p358
tp359
a(g153
g128
tp360
a(g51
g223
tp361
a(S'126771'
p362
S'167230'
p363
tp364
a(g100
g241
tp365
a(g78
g63
tp366
a(g51
g91
tp367
a(g13
g12
tp368
a(g110
g109
tp369
a(g337
g33
tp370
a(g245
g244
tp371
a(g300
g299
tp372
a(S'653663'
p373
g104
tp374
a(g337
g184
tp375
a(g43
g42
tp376
a(g59
g151
tp377
a(g63
g62
tp378
a(g128
g31
tp379
a(g358
g136
tp380
a(g100
g293
tp381
a(g101
g241
tp382
a(g179
g124
tp383
a(g52
g223
tp384
a(g18
g341
tp385
a(g174
g232
tp386
a(S'1980773'
p387
g149
tp388
a(g97
g96
tp389
a(S'179722'
p390
S'1959759'
p391
tp392
a(S'236293'
p393
S'9036'
p394
tp395
a(g212
g12
tp396
a(S'806587'
p397
S'33368'
p398
tp399
a(S'706'
p400
g48
tp401
a(g34
g33
tp402
a(g252
g21
tp403
a(g30
g153
tp404
a(g218
g217
tp405
a(g174
g173
tp406
a(g272
g271
tp407
a(g237
S'13832'
p408
tp409
a(g93
g144
tp410
a(g66
g70
tp411
a(g119
g118
tp412
a(g177
g176
tp413
a(g7
g6
tp414
a(g70
g68
tp415
a(g195
g194
tp416
a(g311
g310
tp417
a(g223
g52
tp418
a(g325
S'574963'
p419
tp420
a(g394
g393
tp421
a(g68
g45
tp422
a(g30
g128
tp423
a(S'141128'
p424
S'291142'
p425
tp426
a(S'300162'
p427
g322
tp428
a(g62
S'31990'
p429
tp430
a(S'107763'
p431
g390
tp432
a(g103
g322
tp433
a(g344
S'1238843'
p434
tp435
a(g19
g18
tp436
a(g322
g103
tp437
a(g358
g135
tp438
a(g65
g70
tp439
a(g265
g202
tp440
a(g46
g65
tp441
a(g427
g103
tp442
a(g104
g427
tp443
a(g49
g400
tp444
a(g151
g59
tp445
a(S'730191'
p446
S'3774'
p447
tp448
a(g431
g391
tp449
a(g16
g431
tp450
a(g31
g30
tp451
a(S'41773'
p452
g307
tp453
a(g16
g15
tp454
a(g104
g373
tp455
a(S'16683'
p456
g285
tp457
a(g68
g65
tp458
a(g103
g373
tp459
a(g297
g325
tp460
a(S'155745'
p461
S'31674'
p462
tp463
a(g46
g66
tp464
a(g52
g51
tp465
a(S'1974848'
p466
S'156467'
p467
tp468
a(g358
g357
tp469
a(S'78457'
p470
S'24714'
p471
tp472
a(g179
g125
tp473
a(g4
g159
tp474
a(g467
g466
tp475
a(g3
g159
tp476
a(g55
g210
tp477
a(S'39522'
p478
S'191937'
p479
tp480
a(g157
g229
tp481
a(g182
g313
tp482
a(g202
g265
tp483
a(g147
g177
tp484
a(g308
g307
tp485
a(g447
g446
tp486
a(g452
g308
tp487
a(g434
g343
tp488
a(g471
g470
tp489
a(g149
g115
tp490
a(g177
g147
tp491
a(g77
g62
tp492
a(g97
g197
tp493
a(g307
g452
tp494
a(g316
g315
tp495
a(S'354786'
p496
S'75439'
p497
tp498
a(g12
g212
tp499
a(S'120059'
p500
g200
tp501
a(g132
g74
tp502
a(g200
g500
tp503
a(g165
g164
tp504
a(g37
g36
tp505
a(g136
g358
tp506
a(S'114716'
p507
g398
tp508
a(g187
g186
tp509
a(g391
g431
tp510
a(g159
g4
tp511
a(S'261307'
p512
g214
tp513
a(g215
g214
tp514
a(g344
g343
tp515
a(g500
g199
tp516
a(g91
g51
tp517
a(g212
g13
tp518
a(g70
g46
tp519
a(g54
g210
tp520
a(g387
g116
tp521
a(g330
g189
tp522
a(g19
g234
tp523
a(g91
g52
tp524
a(g286
g347
tp525
a(S'35624'
p526
g307
tp527
a(S'70176'
p528
S'126289'
p529
tp530
a(g184
g337
tp531
a(S'32131'
p532
g394
tp533
a(g357
g135
tp534
a(g313
g164
tp535
a(g398
g507
tp536
a(g68
g66
tp537
a(g307
g526
tp538
a(g109
g278
tp539
a(g363
g362
tp540
a(g167
g192
tp541
a(g325
g173
tp542
a(g238
g237
tp543
a(g72
g51
tp544
a(g210
g54
tp545
a(g116
g387
tp546
a(g200
g199
tp547
a(g197
g192
tp548
a(g238
g408
tp549
a(g91
g223
tp550
a(g104
g322
tp551
a(g77
g89
tp552
a(g206
g205
tp553
a(S'20590'
p554
g271
tp555
a(g63
g78
tp556
a(g241
g293
tp557
a(g125
g124
tp558
a(g84
g83
tp559
a(g250
g249
tp560
a(g322
g427
tp561
a(g302
g55
tp562
a(g149
g387
tp563
a(g65
g45
tp564
a(g147
g146
tp565
a(g78
g89
tp566
a(g398
g397
tp567
a(g255
g254
tp568
a(g293
g241
tp569
a(g124
g179
tp570
a(g25
g267
tp571
a(g313
g182
tp572
a(g72
g91
tp573
a(g45
g65
tp574
a(g66
g68
tp575
a(g89
g77
tp576
a(g308
g452
tp577
a(g286
g285
tp578
a(g72
g52
tp579
a(g77
g63
tp580
a(g45
g68
tp581
a(g341
g18
tp582
a(g203
g265
tp583
a(g390
g121
tp584
a(g60
g59
tp585
a(g4
g3
tp586
a(g16
g121
tp587
a(g434
g344
tp588
a(S'33841'
p589
S'1980123'
p590
tp591
a(g431
g121
tp592
a(g590
g589
tp593
a(g89
g63
tp594
a(g241
g100
tp595
a(g57
g302
tp596
a(g554
g272
tp597
a(g259
g258
tp598
a(g136
g135
tp599
a(g70
g66
tp600
a(g31
S'49428'
p601
tp602
a(g75
g132
tp603
a(g394
g532
tp604
a(g197
g167
tp605
a(g40
S'37273'
p606
tp607
a(g400
g49
tp608
a(S'1134'
p609
g3
tp610
a(g425
g424
tp611
a(g197
g97
tp612
a(g25
g24
tp613
a(g184
g34
tp614
a(g393
g532
tp615
a(g62
g78
tp616
a(g229
g156
tp617
a(g135
g358
tp618
a(g39
g606
tp619
a(g165
g313
tp620
a(g48
g400
tp621
a(g84
g328
tp622
a(g176
g147
tp623
a(g263
g110
tp624
a(g462
g461
tp625
a(g281
g280
tp626
a(g320
g106
tp627
a(g391
g390
tp628
a(g293
g100
tp629
a(g135
g357
tp630
a(g87
g86
tp631
a(g115
g387
tp632
a(g387
g115
tp633
a(g390
g431
tp634
a(g408
g237
tp635
a(g427
g104
tp636
a(S'174694'
p637
g194
tp638
a(g63
g77
tp639
a(g3
g609
tp640
a(g46
g68
tp641
a(g252
g22
tp642
a(g479
g478
tp643
a(g334
g333
tp644
a(g153
g31
tp645
a(g66
g46
tp646
a(g194
g637
tp647
a(g265
S'1946001'
p648
tp649
a(g214
g512
tp650
a(g373
g103
tp651
a(g512
g215
tp652
a(g199
g500
tp653
a(g431
g16
tp654
a(g341
g19
tp655
a(g343
g434
tp656
a(g63
g89
tp657
a(g31
g128
tp658
a(g272
g554
tp659
a(g70
g65
tp660
a(g320
g107
tp661
a(g532
g393
tp662
a(g529
g528
tp663
a(S'1405040'
p664
S'341627'
p665
tp666
a(g215
g512
tp667
a(g45
g70
tp668
a(g153
g30
tp669
a(g168
g167
tp670
a(g190
g189
tp671
a(g429
g62
tp672
a(g601
g31
tp673
a(g103
g427
tp674
a(g285
g456
tp675
a(g91
g72
tp676
a(g648
g265
tp677
a(g419
g325
tp678
a(g78
g62
tp679
a(g128
g153
tp680
a(g65
g68
tp681
a(g34
g184
tp682
a(g162
g94
tp683
a(g289
g288
tp684
a(g6
S'481093'
p685
tp686
a(g665
g664
tp687
a(g121
g390
tp688
a(g121
g431
tp689
a(g497
g496
tp690
a(g408
g238
tp691
a(g227
g226
tp692
a(g685
g6
tp693
a(g271
g554
tp694
a(g70
g45
tp695
a(g606
g39
tp696
a(g192
g167
tp697
a(g606
g40
tp698
atRp699
.