c__builtin__
set
p1
((lp2
(S'84183'
p3
S'1970284'
p4
tp5
a(S'270934'
p6
S'45489'
p7
tp8
a(S'312765'
p9
S'11667'
p10
tp11
a(S'231565'
p12
S'107097'
p13
tp14
a(S'594788'
p15
S'100010'
p16
tp17
a(S'14395'
p18
S'111351'
p19
tp20
a(S'193832'
p21
S'319566'
p22
tp23
a(S'47794'
p24
S'207150'
p25
tp26
a(g18
S'49331'
p27
tp28
a(S'31674'
p29
S'65652'
p30
tp31
a(S'639658'
p32
S'159744'
p33
tp34
a(S'382210'
p35
S'239628'
p36
tp37
a(S'77617'
p38
S'337742'
p39
tp40
a(S'404010'
p41
S'1611542'
p42
tp43
a(S'256325'
p44
S'164080'
p45
tp46
a(S'1405040'
p47
S'216476'
p48
tp49
a(S'248226'
p50
S'897948'
p51
tp52
a(S'321281'
p53
S'3471'
p54
tp55
a(S'174694'
p56
S'448638'
p57
tp58
a(g48
S'296634'
p59
tp60
a(S'222259'
p61
S'86148'
p62
tp63
a(S'1134'
p64
S'135968'
p65
tp66
a(S'34012'
p67
S'485051'
p68
tp69
a(S'374124'
p70
S'86484'
p71
tp72
a(S'82704'
p73
S'195344'
p74
tp75
a(S'165965'
p76
g71
tp77
a(S'480910'
p78
S'24205'
p79
tp80
a(g32
S'316746'
p81
tp82
a(S'701211'
p83
S'309071'
p84
tp85
a(S'125559'
p86
S'358441'
p87
tp88
a(S'24684'
p89
g61
tp90
a(g42
S'1177880'
p91
tp92
a(g10
S'24714'
p93
tp94
a(S'321223'
p95
S'1054215'
p96
tp97
a(S'75'
p98
S'107225'
p99
tp100
a(S'205683'
p101
S'28034'
p102
tp103
a(g16
g15
tp104
a(g22
S'81333'
p105
tp106
a(S'126100'
p107
S'1958346'
p108
tp109
a(S'3774'
p110
S'257337'
p111
tp112
a(S'295562'
p113
S'6162'
p114
tp115
a(S'6229'
p116
g10
tp117
a(g101
S'309811'
p118
tp119
a(S'1981037'
p120
S'1482686'
p121
tp122
a(S'237857'
p123
g65
tp124
a(S'251645'
p125
S'435026'
p126
tp127
a(g105
g21
tp128
a(S'204474'
p129
S'1179102'
p130
tp131
a(S'191010'
p132
g7
tp133
a(S'38203'
p134
S'455522'
p135
tp136
a(S'653663'
p137
S'138644'
p138
tp139
a(S'62038'
p140
S'91946'
p141
tp142
a(g56
S'341627'
p143
tp144
a(g81
g32
tp145
a(S'576155'
p146
S'336307'
p147
tp148
a(S'222041'
p149
S'181441'
p150
tp151
a(S'158019'
p152
S'30401'
p153
tp154
a(g73
S'1938480'
p155
tp156
a(S'73473'
p157
S'92491'
p158
tp159
a(g108
S'64571'
p160
tp161
a(S'39929'
p162
g41
tp163
a(S'15143'
p164
S'55735'
p165
tp166
a(g120
S'14440'
p167
tp168
a(S'270190'
p169
S'1453603'
p170
tp171
a(S'67256'
p172
S'221099'
p173
tp174
a(S'1935888'
p175
g172
tp176
a(g162
g42
tp177
a(S'126297'
p178
S'83951'
p179
tp180
a(S'958215'
p181
g167
tp182
a(g25
g24
tp183
a(g9
g93
tp184
a(g65
S'1356428'
p185
tp186
a(S'406389'
p187
g53
tp188
a(S'42533'
p189
S'301451'
p190
tp191
a(S'271816'
p192
S'8448'
p193
tp194
a(g146
S'1936002'
p195
tp196
a(S'22344'
p197
S'218977'
p198
tp199
a(g120
g181
tp200
a(g175
S'193555'
p201
tp202
a(g141
S'73729'
p203
tp204
a(g39
g38
tp205
a(g192
S'832291'
p206
tp207
a(g187
S'113124'
p208
tp209
a(S'76989'
p210
S'65607'
p211
tp212
a(g118
S'284071'
p213
tp214
a(S'358947'
p215
g162
tp216
a(g68
S'1949595'
p217
tp218
a(S'196288'
p219
S'727818'
p220
tp221
a(S'359067'
p222
S'2910'
p223
tp224
a(S'26596'
p225
S'10257'
p226
tp227
a(S'1073960'
p228
S'108212'
p229
tp230
a(S'1412122'
p231
S'57934'
p232
tp233
a(S'77024'
p234
S'59515'
p235
tp236
a(g228
S'763584'
p237
tp238
a(g70
S'103618'
p239
tp240
a(g213
g76
tp241
a(S'26724'
p242
S'12486'
p243
tp244
a(S'37434'
p245
S'115950'
p246
tp247
a(S'897962'
p248
S'972663'
p249
tp250
a(S'107763'
p251
S'179722'
p252
tp253
a(S'293819'
p254
g225
tp255
a(S'13832'
p256
S'143316'
p257
tp258
a(g155
g74
tp259
a(g41
g91
tp260
a(S'45336'
p261
S'31990'
p262
tp263
a(g229
g237
tp264
a(g102
g118
tp265
a(g213
g118
tp266
a(S'67731'
p267
S'181694'
p268
tp269
a(S'66019'
p270
S'228568'
p271
tp272
a(g235
g234
tp273
a(g181
g120
tp274
a(g74
g73
tp275
a(S'264179'
p276
g256
tp277
a(S'1968552'
p278
S'14390'
p279
tp280
a(g67
g217
tp281
a(g91
g162
tp282
a(S'260796'
p283
g198
tp284
a(g251
S'1959759'
p285
tp286
a(S'1946001'
p287
g68
tp288
a(S'105264'
p289
g193
tp290
a(S'26934'
p291
S'80788'
p292
tp293
a(g206
g192
tp294
a(g261
g62
tp295
a(S'87054'
p296
S'1962294'
p297
tp298
a(g217
g68
tp299
a(g243
g198
tp300
a(S'194983'
p301
g157
tp302
a(g113
S'36559'
p303
tp304
a(g4
g3
tp305
a(S'406255'
p306
S'227356'
p307
tp308
a(g297
g296
tp309
a(g143
g56
tp310
a(g192
S'60139'
p311
tp312
a(S'160582'
p313
S'293124'
p314
tp315
a(g170
g169
tp316
a(g44
S'76821'
p317
tp318
a(g173
g175
tp319
a(S'1297561'
p320
S'251378'
p321
tp322
a(g317
g44
tp323
a(S'138270'
p324
g279
tp325
a(S'1426719'
p326
S'677164'
p327
tp328
a(g7
g132
tp329
a(S'95194'
p330
S'1608585'
p331
tp332
a(S'481093'
p333
S'86406'
p334
tp335
a(g53
g187
tp336
a(S'435269'
p337
g246
tp338
a(g279
g278
tp339
a(S'562784'
p340
S'90089'
p341
tp342
a(S'18356'
p343
S'345480'
p344
tp345
a(g276
g254
tp346
a(g111
g110
tp347
a(S'1017951'
p348
S'238898'
p349
tp350
a(g123
g185
tp351
a(g198
g243
tp352
a(g118
g102
tp353
a(S'114716'
p354
S'806587'
p355
tp356
a(g61
g89
tp357
a(g311
g193
tp358
a(g324
g278
tp359
a(g158
g107
tp360
a(g167
g121
tp361
a(g123
g64
tp362
a(S'126771'
p363
S'167230'
p364
tp365
a(g10
g9
tp366
a(S'334743'
p367
g102
tp368
a(S'411369'
p369
g226
tp370
a(S'20122'
p371
g201
tp372
a(g21
g105
tp373
a(g158
g157
tp374
a(g208
g187
tp375
a(S'16754'
p376
S'128581'
p377
tp378
a(g189
S'53733'
p379
tp380
a(g157
g301
tp381
a(S'18484'
p382
S'7336'
p383
tp384
a(S'248790'
p385
S'1067393'
p386
tp387
a(g147
g146
tp388
a(g51
g50
tp389
a(g36
g35
tp390
a(S'111597'
p391
S'45430'
p392
tp393
a(S'153024'
p394
g190
tp395
a(g33
g81
tp396
a(g62
g61
tp397
a(g121
g181
tp398
a(g197
g242
tp399
a(g79
g78
tp400
a(g317
g45
tp401
a(g203
g140
tp402
a(g42
g215
tp403
a(g162
g91
tp404
a(g198
g283
tp405
a(S'1980773'
p406
g179
tp407
a(g102
g101
tp408
a(S'121065'
p409
g297
tp410
a(g252
g285
tp411
a(S'236293'
p412
S'9036'
p413
tp414
a(S'897'
p415
S'79240'
p416
tp417
a(S'5136'
p418
S'34952'
p419
tp420
a(S'1436199'
p421
S'1634439'
p422
tp423
a(g15
S'527173'
p424
tp425
a(g114
g113
tp426
a(S'110039'
p427
g167
tp428
a(g158
g301
tp429
a(g232
g231
tp430
a(S'300162'
p431
g137
tp432
a(g422
S'1442163'
p433
tp434
a(g198
g197
tp435
a(g87
g86
tp436
a(g254
g256
tp437
a(S'22903'
p438
g239
tp439
a(g165
g164
tp440
a(g201
g175
tp441
a(g355
g354
tp442
a(g334
S'925293'
p443
tp444
a(g87
S'168207'
p445
tp446
a(g239
g70
tp447
a(g13
g12
tp448
a(g172
g175
tp449
a(g215
g42
tp450
a(g242
S'574963'
p451
tp452
a(g413
g412
tp453
a(S'72572'
p454
S'75439'
p455
tp456
a(g427
g121
tp457
a(S'141128'
p458
S'291142'
p459
tp460
a(g271
g270
tp461
a(g105
g22
tp462
a(g61
g262
tp463
a(g7
g6
tp464
a(S'8061'
p465
S'459195'
p466
tp467
a(g341
S'1238843'
p468
tp469
a(g195
g146
tp470
a(g424
g15
tp471
a(g466
g465
tp472
a(S'140444'
p473
g239
tp474
a(g99
g98
tp475
a(g438
g70
tp476
a(S'760360'
p477
g431
tp478
a(g39
S'706'
p479
tp480
a(g254
g257
tp481
a(g187
g54
tp482
a(S'152999'
p483
g251
tp484
a(g445
g87
tp485
a(g65
g64
tp486
a(g147
g195
tp487
a(g243
g242
tp488
a(S'146350'
p489
S'174155'
p490
tp491
a(g120
g427
tp492
a(g42
g41
tp493
a(g392
g391
tp494
a(S'1974848'
p495
S'156467'
p496
tp497
a(g473
S'28176'
p498
tp499
a(g226
g369
tp500
a(g379
g190
tp501
a(g203
g141
tp502
a(g116
g9
tp503
a(g496
g495
tp504
a(g185
g65
tp505
a(g206
g311
tp506
a(g68
g67
tp507
a(g254
g276
tp508
a(g173
g201
tp509
a(g433
g422
tp510
a(S'204509'
p511
S'1936049'
p512
tp513
a(S'15342'
p514
S'205146'
p515
tp516
a(g416
g415
tp517
a(S'41773'
p518
g514
tp519
a(g468
g340
tp520
a(g179
g178
tp521
a(g201
g173
tp522
a(g68
g287
tp523
a(g355
S'33368'
p524
tp525
a(g327
g326
tp526
a(g314
g313
tp527
a(g419
g418
tp528
a(g455
g454
tp529
a(g155
g73
tp530
a(S'210883'
p531
g98
tp532
a(g422
g421
tp533
a(g59
g48
tp534
a(g193
g192
tp535
a(g33
g32
tp536
a(g138
g137
tp537
a(g490
g489
tp538
a(g116
g93
tp539
a(g252
g251
tp540
a(g285
g251
tp541
a(g19
g18
tp542
a(g217
g287
tp543
a(g126
g125
tp544
a(g190
g394
tp545
a(S'261307'
p546
g222
tp547
a(g65
g123
tp548
a(g64
g123
tp549
a(g223
g222
tp550
a(g341
g340
tp551
a(g262
g61
tp552
a(g91
g41
tp553
a(g215
g91
tp554
a(g193
g289
tp555
a(g135
g134
tp556
a(g195
g147
tp557
a(g91
g42
tp558
a(g349
g348
tp559
a(g445
g86
tp560
a(g443
g334
tp561
a(S'70176'
p562
S'126289'
p563
tp564
a(g167
g120
tp565
a(g59
g47
tp566
a(g229
g228
tp567
a(S'32131'
p568
g413
tp569
a(g245
g337
tp570
a(g297
g409
tp571
a(g81
g33
tp572
a(g292
g291
tp573
a(g364
g363
tp574
a(g257
g225
tp575
a(g246
g337
tp576
a(g242
g197
tp577
a(g237
g229
tp578
a(S'112902'
p579
S'24020'
p580
tp581
a(g515
g514
tp582
a(g580
g579
tp583
a(g287
g217
tp584
a(g76
g213
tp585
a(g278
g324
tp586
a(g225
g256
tp587
a(g91
g215
tp588
a(g256
g276
tp589
a(g96
g95
tp590
a(g220
g219
tp591
a(S'20590'
p592
S'106638'
p593
tp594
a(g62
g261
tp595
a(g262
g261
tp596
a(g321
g320
tp597
a(g121
g120
tp598
a(g141
g140
tp599
a(g134
S'1967784'
p600
tp601
a(g333
g443
tp602
a(g268
g267
tp603
a(g337
g245
tp604
a(g98
g531
tp605
a(g179
g406
tp606
a(g225
g254
tp607
a(g64
S'50886'
p608
tp609
a(g173
g172
tp610
a(g225
g257
tp611
a(g261
g89
tp612
a(g524
g355
tp613
a(g201
g371
tp614
a(g114
g303
tp615
a(g121
g167
tp616
a(g409
g296
tp617
a(g150
g149
tp618
a(g140
g203
tp619
a(g311
g206
tp620
a(g379
g189
tp621
a(g498
g473
tp622
a(g9
g116
tp623
a(g514
g518
tp624
a(g130
g211
tp625
a(g135
g62
tp626
a(g76
g118
tp627
a(g334
g333
tp628
a(S'305975'
p629
S'294184'
p630
tp631
a(g217
g67
tp632
a(g252
g132
tp633
a(g208
g54
tp634
a(g54
g53
tp635
a(g45
g317
tp636
a(g107
g158
tp637
a(g427
g120
tp638
a(g468
g341
tp639
a(g287
S'738505'
p640
tp641
a(g74
g155
tp642
a(g383
g382
tp643
a(g303
g113
tp644
a(g160
g108
tp645
a(g30
g29
tp646
a(g239
g438
tp647
a(g406
g178
tp648
a(g162
g215
tp649
a(g413
g568
tp650
a(g89
g261
tp651
a(S'652192'
p652
S'37273'
p653
tp654
a(g640
g287
tp655
a(g226
g225
tp656
a(g479
g39
tp657
a(g64
g185
tp658
a(g459
g458
tp659
a(g121
g427
tp660
a(g48
g47
tp661
a(g27
g18
tp662
a(g412
g568
tp663
a(g10
g116
tp664
a(g61
g261
tp665
a(g249
g248
tp666
a(g108
g107
tp667
a(g193
g311
tp668
a(g246
g245
tp669
a(g175
g173
tp670
a(g211
g130
tp671
a(g431
g138
tp672
a(g45
g44
tp673
a(g54
g187
tp674
a(g344
g343
tp675
a(g285
g252
tp676
a(g71
g76
tp677
a(g84
g83
tp678
a(g178
g406
tp679
a(g208
g53
tp680
a(g237
g228
tp681
a(g57
g56
tp682
a(g93
g9
tp683
a(g256
g254
tp684
a(g431
g477
tp685
a(g303
g114
tp686
a(g70
g438
tp687
a(g62
g135
tp688
a(g185
g64
tp689
a(g71
g70
tp690
a(g118
g76
tp691
a(g608
g64
tp692
a(g377
g376
tp693
a(g53
g208
tp694
a(g167
g181
tp695
a(g386
g385
tp696
a(g118
g101
tp697
a(g222
g546
tp698
a(g41
g162
tp699
a(S'1337641'
p700
S'120059'
p701
tp702
a(g251
g483
tp703
a(g340
g468
tp704
a(g181
g121
tp705
a(g301
g158
tp706
a(g185
g123
tp707
a(g239
g473
tp708
a(g512
g511
tp709
a(g93
g10
tp710
a(g190
g379
tp711
a(g568
g412
tp712
a(g630
g629
tp713
a(g93
g116
tp714
a(g483
g285
tp715
a(g563
g562
tp716
a(g137
g431
tp717
a(g22
g21
tp718
a(g498
g239
tp719
a(g167
g427
tp720
a(g211
g210
tp721
a(g701
g700
tp722
a(g311
g192
tp723
a(g101
g367
tp724
a(g257
g254
tp725
a(g307
g306
tp726
a(g421
g50
tp727
a(g451
g242
tp728
a(g285
g483
tp729
a(g42
g162
tp730
a(g261
g61
tp731
a(g257
g256
tp732
a(g211
g129
tp733
a(g296
g409
tp734
a(g190
g189
tp735
a(g443
g333
tp736
a(g653
g652
tp737
a(g132
g252
tp738
a(g367
g101
tp739
a(g256
g225
tp740
a(g600
g134
tp741
a(g279
g324
tp742
a(g129
g211
tp743
a(g239
g498
tp744
a(g54
g208
tp745
a(g593
g592
tp746
a(g50
g421
tp747
a(g86
g445
tp748
a(g130
g129
tp749
a(g138
g431
tp750
a(g47
g59
tp751
a(g102
g367
tp752
a(g331
g330
tp753
a(g153
g152
tp754
atRp755
.