c__builtin__
set
p1
((lp2
(S'1356428'
p3
S'50886'
p4
tp5
a(S'84183'
p6
S'1970284'
p7
tp8
a(S'270934'
p9
S'45489'
p10
tp11
a(S'312765'
p12
S'11667'
p13
tp14
a(S'231565'
p15
S'107097'
p16
tp17
a(S'594788'
p18
S'100010'
p19
tp20
a(S'14395'
p21
S'111351'
p22
tp23
a(S'193832'
p24
S'319566'
p25
tp26
a(S'47794'
p27
S'207150'
p28
tp29
a(g21
S'49331'
p30
tp31
a(S'1967422'
p32
S'1035999'
p33
tp34
a(S'110039'
p35
S'958215'
p36
tp37
a(S'1935888'
p38
S'193555'
p39
tp40
a(S'639658'
p41
S'159744'
p42
tp43
a(S'382210'
p44
S'239628'
p45
tp46
a(S'77617'
p47
S'337742'
p48
tp49
a(S'140444'
p50
S'103618'
p51
tp52
a(S'1405040'
p53
S'216476'
p54
tp55
a(S'321281'
p56
S'3471'
p57
tp58
a(S'174694'
p59
S'448638'
p60
tp61
a(g54
S'296634'
p62
tp63
a(S'222259'
p64
S'86148'
p65
tp66
a(S'1134'
p67
S'135968'
p68
tp69
a(S'34012'
p70
S'485051'
p71
tp72
a(S'374124'
p73
S'86484'
p74
tp75
a(S'82704'
p76
S'195344'
p77
tp78
a(S'480910'
p79
S'24205'
p80
tp81
a(g41
S'316746'
p82
tp83
a(S'701211'
p84
S'309071'
p85
tp86
a(S'125559'
p87
S'358441'
p88
tp89
a(S'24684'
p90
g64
tp91
a(S'1611542'
p92
S'1177880'
p93
tp94
a(g13
S'24714'
p95
tp96
a(S'321223'
p97
S'1054215'
p98
tp99
a(g19
g18
tp100
a(g25
S'81333'
p101
tp102
a(S'126100'
p103
S'1958346'
p104
tp105
a(S'295562'
p106
S'6162'
p107
tp108
a(S'6229'
p109
g13
tp110
a(S'1981037'
p111
S'1482686'
p112
tp113
a(S'251645'
p114
S'435026'
p115
tp116
a(S'15143'
p117
S'55735'
p118
tp119
a(S'204474'
p120
S'1179102'
p121
tp122
a(S'191010'
p123
g10
tp124
a(S'653663'
p125
S'138644'
p126
tp127
a(S'62038'
p128
S'91946'
p129
tp130
a(g59
S'341627'
p131
tp132
a(S'28176'
p133
S'22903'
p134
tp135
a(g82
g41
tp136
a(S'576155'
p137
S'336307'
p138
tp139
a(S'222041'
p140
S'181441'
p141
tp142
a(g90
S'45336'
p143
tp144
a(g76
S'1938480'
p145
tp146
a(S'73473'
p147
S'92491'
p148
tp149
a(g104
S'64571'
p150
tp151
a(S'164080'
p152
S'256325'
p153
tp154
a(g111
S'14440'
p155
tp156
a(S'270190'
p157
S'1453603'
p158
tp159
a(S'67256'
p160
S'221099'
p161
tp162
a(g38
g160
tp163
a(S'39929'
p164
g92
tp165
a(S'126297'
p166
S'83951'
p167
tp168
a(g36
g155
tp169
a(g28
g27
tp170
a(g12
g95
tp171
a(S'26321'
p172
S'16683'
p173
tp174
a(g68
g3
tp175
a(S'925293'
p176
S'481093'
p177
tp178
a(S'42533'
p179
S'301451'
p180
tp181
a(S'271816'
p182
S'8448'
p183
tp184
a(S'227356'
p185
S'406255'
p186
tp187
a(S'22344'
p188
S'218977'
p189
tp190
a(S'31674'
p191
S'65652'
p192
tp193
a(g129
S'73729'
p194
tp195
a(S'152999'
p196
S'107763'
p197
tp198
a(g182
S'832291'
p199
tp200
a(S'406389'
p201
S'113124'
p202
tp203
a(S'76989'
p204
S'65607'
p205
tp206
a(S'205683'
p207
S'309811'
p208
tp209
a(S'41773'
p210
S'205146'
p211
tp212
a(S'358947'
p213
g164
tp214
a(g71
S'1949595'
p215
tp216
a(S'196288'
p217
S'727818'
p218
tp219
a(S'173065'
p220
S'43336'
p221
tp222
a(S'1073960'
p223
S'108212'
p224
tp225
a(S'359067'
p226
S'2910'
p227
tp228
a(S'1412122'
p229
S'57934'
p230
tp231
a(g199
g182
tp232
a(g73
g51
tp233
a(S'26724'
p234
S'12486'
p235
tp236
a(S'37434'
p237
S'115950'
p238
tp239
a(S'897962'
p240
S'972663'
p241
tp242
a(g197
S'179722'
p243
tp244
a(S'293819'
p245
S'26596'
p246
tp247
a(S'13832'
p248
S'143316'
p249
tp250
a(g145
g77
tp251
a(g143
S'31990'
p252
tp253
a(g201
g56
tp254
a(g224
S'763584'
p255
tp256
a(S'28034'
p257
g208
tp258
a(S'284071'
p259
g208
tp260
a(S'67731'
p261
S'181694'
p262
tp263
a(S'66019'
p264
S'228568'
p265
tp266
a(g137
S'1936002'
p267
tp268
a(g33
g32
tp269
a(g24
g101
tp270
a(g77
g76
tp271
a(S'264179'
p272
g248
tp273
a(g70
g215
tp274
a(g93
g164
tp275
a(S'260796'
p276
g189
tp277
a(S'1946001'
p278
g71
tp279
a(S'105264'
p280
g183
tp281
a(g223
g255
tp282
a(g243
g197
tp283
a(g180
S'153024'
p284
tp285
a(g215
g71
tp286
a(g235
g189
tp287
a(S'194983'
p288
g147
tp289
a(S'345480'
p290
S'18356'
p291
tp292
a(g7
g6
tp293
a(g186
g185
tp294
a(S'1962294'
p295
S'87054'
p296
tp297
a(g131
g59
tp298
a(S'268102'
p299
S'1967784'
p300
tp301
a(g182
S'60139'
p302
tp303
a(g158
g157
tp304
a(g16
g290
tp305
a(g161
g38
tp306
a(S'1297561'
p307
S'251378'
p308
tp309
a(S'138270'
p310
S'14390'
p311
tp312
a(g202
g201
tp313
a(S'1426719'
p314
S'677164'
p315
tp316
a(g10
g123
tp317
a(S'7336'
p318
S'203661'
p319
tp320
a(g177
S'86406'
p321
tp322
a(g56
g202
tp323
a(S'435269'
p324
g238
tp325
a(g126
S'300162'
p326
tp327
a(g25
g24
tp328
a(S'562784'
p329
S'90089'
p330
tp331
a(g291
g290
tp332
a(g272
g245
tp333
a(S'1017951'
p334
S'238898'
p335
tp336
a(S'237857'
p337
g3
tp338
a(g189
g235
tp339
a(g208
g257
tp340
a(S'114716'
p341
S'806587'
p342
tp343
a(g64
g90
tp344
a(g302
g183
tp345
a(g310
S'1968552'
p346
tp347
a(g148
g103
tp348
a(g155
g112
tp349
a(g337
g67
tp350
a(S'126771'
p351
S'167230'
p352
tp353
a(g13
g12
tp354
a(g208
g259
tp355
a(S'278573'
p356
S'105337'
p357
tp358
a(S'404010'
p359
g93
tp360
a(S'20122'
p361
g39
tp362
a(g357
g356
tp363
a(g148
g147
tp364
a(g143
g65
tp365
a(S'16754'
p366
S'128581'
p367
tp368
a(g60
g59
tp369
a(g147
g288
tp370
a(S'18484'
p371
g318
tp372
a(S'248790'
p373
S'1067393'
p374
tp375
a(g138
g137
tp376
a(g45
g44
tp377
a(S'111597'
p378
S'45430'
p379
tp380
a(g284
g180
tp381
a(g65
g64
tp382
a(g262
g261
tp383
a(g73
g134
tp384
a(g80
g79
tp385
a(S'76821'
p386
g152
tp387
a(g194
g128
tp388
a(g92
g213
tp389
a(g164
g93
tp390
a(S'334743'
p391
g257
tp392
a(g189
g276
tp393
a(S'1980773'
p394
g167
tp395
a(g153
g152
tp396
a(S'121065'
p397
g295
tp398
a(g243
S'1959759'
p399
tp400
a(S'236293'
p401
S'9036'
p402
tp403
a(S'5136'
p404
S'34952'
p405
tp406
a(g342
S'33368'
p407
tp408
a(S'1436199'
p409
S'1634439'
p410
tp411
a(g18
S'527173'
p412
tp413
a(g107
g106
tp414
a(g35
g155
tp415
a(g148
g288
tp416
a(g230
g229
tp417
a(g201
g57
tp418
a(g326
g125
tp419
a(g410
S'1442163'
p420
tp421
a(g189
g188
tp422
a(g88
g87
tp423
a(g245
g248
tp424
a(g134
g51
tp425
a(S'26934'
p426
S'80788'
p427
tp428
a(g39
g38
tp429
a(g342
g341
tp430
a(g321
g176
tp431
a(g88
S'168207'
p432
tp433
a(g51
g73
tp434
a(g16
g15
tp435
a(g252
g90
tp436
a(g300
g299
tp437
a(g213
g92
tp438
a(g234
S'574963'
p439
tp440
a(g402
g401
tp441
a(g407
g342
tp442
a(g248
g245
tp443
a(g57
g201
tp444
a(S'141128'
p445
S'291142'
p446
tp447
a(g265
g264
tp448
a(g101
g25
tp449
a(g64
g252
tp450
a(g10
g9
tp451
a(S'8061'
p452
S'459195'
p453
tp454
a(g330
S'1238843'
p455
tp456
a(g267
g137
tp457
a(g412
g18
tp458
a(g453
g452
tp459
a(g359
g92
tp460
a(g134
g73
tp461
a(S'760360'
p462
g326
tp463
a(g48
S'706'
p464
tp465
a(g204
g121
tp466
a(g202
g57
tp467
a(g48
g47
tp468
a(g36
g35
tp469
a(g432
g88
tp470
a(g68
g67
tp471
a(g173
g172
tp472
a(g235
g234
tp473
a(S'146350'
p474
S'174155'
p475
tp476
a(g92
g359
tp477
a(g379
g378
tp478
a(S'1974848'
p479
S'156467'
p480
tp481
a(g50
g133
tp482
a(S'10257'
p483
S'411369'
p484
tp485
a(S'53733'
p486
g180
tp487
a(g194
g129
tp488
a(g109
g12
tp489
a(g480
g479
tp490
a(g3
g68
tp491
a(g221
g220
tp492
a(g199
g302
tp493
a(g71
g70
tp494
a(g245
g272
tp495
a(g161
g39
tp496
a(g134
g133
tp497
a(g319
g318
tp498
a(g420
g410
tp499
a(S'204509'
p500
S'1936049'
p501
tp502
a(S'15342'
p503
g211
tp504
a(g210
g503
tp505
a(g455
g329
tp506
a(g167
g166
tp507
a(g39
g161
tp508
a(g71
g278
tp509
a(g161
g160
tp510
a(g211
g210
tp511
a(g315
g314
tp512
a(g405
g404
tp513
a(g145
g76
tp514
a(g410
g409
tp515
a(g62
g54
tp516
a(g183
g182
tp517
a(g125
g326
tp518
a(g42
g41
tp519
a(g126
g125
tp520
a(g160
g38
tp521
a(g90
g252
tp522
a(g22
g21
tp523
a(g215
g278
tp524
a(g115
g114
tp525
a(g296
g295
tp526
a(S'261307'
p527
g226
tp528
a(g67
g337
tp529
a(g227
g226
tp530
a(g95
g12
tp531
a(g252
g64
tp532
a(g155
g36
tp533
a(g213
g93
tp534
a(g138
g267
tp535
a(g183
g280
tp536
a(g120
g204
tp537
a(g267
g138
tp538
a(g93
g92
tp539
a(g335
g334
tp540
a(g432
g87
tp541
a(g176
g321
tp542
a(S'70176'
p543
S'126289'
p544
tp545
a(g155
g111
tp546
a(g62
g53
tp547
a(g224
g223
tp548
a(g249
g248
tp549
a(S'32131'
p550
g402
tp551
a(g237
g324
tp552
a(g295
g397
tp553
a(g427
g426
tp554
a(g352
g351
tp555
a(g249
g246
tp556
a(g238
g324
tp557
a(g234
g188
tp558
a(g246
g245
tp559
a(g255
g224
tp560
a(g211
g503
tp561
a(g278
g215
tp562
a(g101
g24
tp563
a(g346
g310
tp564
a(g246
g248
tp565
a(g93
g213
tp566
a(g248
g272
tp567
a(g98
g97
tp568
a(g218
g217
tp569
a(g65
g143
tp570
a(g252
g143
tp571
a(g326
g462
tp572
a(g308
g307
tp573
a(g112
g111
tp574
a(g129
g128
tp575
a(S'38203'
p576
g300
tp577
a(g112
g36
tp578
a(g324
g237
tp579
a(g167
g394
tp580
a(g118
g117
tp581
a(g67
g4
tp582
a(g4
g3
tp583
a(g246
g249
tp584
a(g143
g90
tp585
a(g120
g205
tp586
a(g39
g361
tp587
a(g107
S'36559'
p588
tp589
a(g397
g296
tp590
a(g141
g140
tp591
a(g121
g204
tp592
a(g128
g194
tp593
a(g196
g243
tp594
a(g302
g199
tp595
a(g133
g50
tp596
a(g12
g109
tp597
a(g503
g210
tp598
a(g121
g205
tp599
a(S'455522'
p600
g65
tp601
a(S'165965'
p602
g208
tp603
a(g321
g177
tp604
a(S'305975'
p605
S'294184'
p606
tp607
a(g215
g70
tp608
a(g243
g123
tp609
a(g57
g56
tp610
a(g152
g386
tp611
a(g103
g148
tp612
a(g455
g330
tp613
a(g278
S'738505'
p614
tp615
a(g77
g145
tp616
a(g318
g371
tp617
a(g588
g106
tp618
a(g150
g104
tp619
a(g192
g191
tp620
a(g51
g134
tp621
a(g394
g166
tp622
a(g164
g213
tp623
a(g402
g550
tp624
a(S'158019'
p625
S'30401'
p626
tp627
a(S'652192'
p628
S'37273'
p629
tp630
a(g614
g278
tp631
a(g204
g120
tp632
a(g464
g48
tp633
a(g67
g3
tp634
a(g446
g445
tp635
a(g112
g35
tp636
a(g54
g53
tp637
a(g30
g21
tp638
a(g401
g550
tp639
a(g13
g109
tp640
a(g64
g143
tp641
a(g241
g240
tp642
a(g104
g103
tp643
a(g183
g302
tp644
a(g311
g310
tp645
a(g38
g161
tp646
a(g205
g121
tp647
a(g326
g126
tp648
a(g177
g176
tp649
a(g106
g588
tp650
a(g399
g243
tp651
a(g85
g84
tp652
a(g166
g394
tp653
a(g202
g56
tp654
a(g255
g223
tp655
a(g330
g329
tp656
a(g35
g112
tp657
a(g484
g483
tp658
a(g588
g107
tp659
a(g188
g234
tp660
a(g65
g600
tp661
a(g3
g67
tp662
a(g74
g73
tp663
a(g208
g602
tp664
a(g4
g67
tp665
a(g367
g366
tp666
a(g56
g201
tp667
a(g93
g359
tp668
a(g374
g373
tp669
a(g208
g207
tp670
a(g226
g527
tp671
a(g245
g249
tp672
a(S'1337641'
p673
S'120059'
p674
tp675
a(g197
g196
tp676
a(g329
g455
tp677
a(g36
g112
tp678
a(g288
g148
tp679
a(g3
g337
tp680
a(g51
g50
tp681
a(g501
g500
tp682
a(g290
g16
tp683
a(g95
g13
tp684
a(g180
g486
tp685
a(g550
g401
tp686
a(g606
g605
tp687
a(g196
g399
tp688
a(g544
g543
tp689
a(g243
g196
tp690
a(g475
g474
tp691
a(g133
g51
tp692
a(g155
g35
tp693
a(g205
g204
tp694
a(g674
g673
tp695
a(g302
g182
tp696
a(g207
g391
tp697
a(g249
g245
tp698
a(g409
S'248226'
p699
tp700
a(g439
g234
tp701
a(g399
g196
tp702
a(g92
g164
tp703
a(g143
g64
tp704
a(g112
g155
tp705
a(g205
g120
tp706
a(g296
g397
tp707
a(g180
g179
tp708
a(g629
g628
tp709
a(g123
g243
tp710
a(g391
g207
tp711
a(g248
g246
tp712
a(g300
g576
tp713
a(g238
g237
tp714
a(g57
g202
tp715
a(g699
g409
tp716
a(g87
g432
tp717
a(g121
g120
tp718
a(g51
g133
tp719
a(g53
g62
tp720
a(g257
g391
tp721
a(g626
g625
tp722
atRp723
.