c__builtin__
set
p1
((lp2
(S'1356428'
p3
S'50886'
p4
tp5
a(S'84183'
p6
S'1970284'
p7
tp8
a(S'77024'
p9
S'193832'
p10
tp11
a(S'227356'
p12
S'406255'
p13
tp14
a(S'594788'
p15
S'100010'
p16
tp17
a(S'14395'
p18
S'111351'
p19
tp20
a(S'47794'
p21
S'207150'
p22
tp23
a(g18
S'49331'
p24
tp25
a(S'1967422'
p26
S'1035999'
p27
tp28
a(S'110039'
p29
S'958215'
p30
tp31
a(S'639658'
p32
S'159744'
p33
tp34
a(S'1517127'
p35
S'652192'
p36
tp37
a(S'382210'
p38
S'239628'
p39
tp40
a(S'334743'
p41
S'284071'
p42
tp43
a(S'77617'
p44
S'337742'
p45
tp46
a(S'404010'
p47
S'1611542'
p48
tp49
a(S'6162'
p50
S'43336'
p51
tp52
a(S'1405040'
p53
S'216476'
p54
tp55
a(S'179722'
p56
S'1959759'
p57
tp58
a(S'321281'
p59
S'3471'
p60
tp61
a(g50
S'36559'
p62
tp63
a(S'22903'
p64
S'374124'
p65
tp66
a(g65
S'86484'
p67
tp68
a(g67
S'103618'
p69
tp70
a(g47
S'126299'
p71
tp72
a(S'82704'
p73
S'195344'
p74
tp75
a(S'455522'
p76
S'45336'
p77
tp78
a(S'76821'
p79
S'164080'
p80
tp81
a(S'13832'
p82
S'293819'
p83
tp84
a(S'701211'
p85
S'309071'
p86
tp87
a(S'24684'
p88
S'222259'
p89
tp90
a(g48
S'1177880'
p91
tp92
a(S'205683'
p93
S'28034'
p94
tp95
a(g16
g15
tp96
a(S'126100'
p97
S'1958346'
p98
tp99
a(S'8061'
p100
S'760360'
p101
tp102
a(S'18356'
p103
S'107097'
p104
tp105
a(S'295562'
p106
g50
tp107
a(S'80788'
p108
S'213907'
p109
tp110
a(S'135968'
p111
S'237857'
p112
tp113
a(S'16754'
p114
S'163125'
p115
tp116
a(S'251645'
p117
S'435026'
p118
tp119
a(S'126297'
p120
S'1884815'
p121
tp122
a(S'15143'
p123
S'55735'
p124
tp125
a(S'191010'
p126
S'45489'
p127
tp128
a(S'653663'
p129
S'138644'
p130
tp131
a(S'62038'
p132
S'91946'
p133
tp134
a(S'87054'
p135
S'248226'
p136
tp137
a(S'28176'
p138
g64
tp139
a(g80
g79
tp140
a(S'576155'
p141
S'336307'
p142
tp143
a(g88
g77
tp144
a(g73
S'1938480'
p145
tp146
a(g51
g50
tp147
a(g98
S'64571'
p148
tp149
a(S'10257'
p150
S'143316'
p151
tp152
a(S'270190'
p153
S'1453603'
p154
tp155
a(S'53733'
p156
S'153024'
p157
tp158
a(S'67256'
p159
S'221099'
p160
tp161
a(S'165965'
p162
g41
tp163
a(g120
S'83951'
p164
tp165
a(g30
S'14440'
p166
tp167
a(g22
g21
tp168
a(S'26321'
p169
S'16683'
p170
tp171
a(S'897962'
p172
S'1460883'
p173
tp174
a(g111
g3
tp175
a(S'925293'
p176
S'481093'
p177
tp178
a(S'42533'
p179
S'301451'
p180
tp181
a(S'271816'
p182
S'8448'
p183
tp184
a(g41
S'309811'
p185
tp186
a(g141
S'1936002'
p187
tp188
a(S'22344'
p189
S'218977'
p190
tp191
a(S'1935888'
p192
S'193555'
p193
tp194
a(g133
S'73729'
p195
tp196
a(g45
g44
tp197
a(g182
S'832291'
p198
tp199
a(S'406389'
p200
S'113124'
p201
tp202
a(g183
S'60139'
p203
tp204
a(S'168997'
p205
S'1350145'
p206
tp207
a(S'76989'
p208
S'65607'
p209
tp210
a(g41
g94
tp211
a(g30
g29
tp212
a(g41
g162
tp213
a(S'358947'
p214
S'39929'
p215
tp216
a(S'485051'
p217
S'1949595'
p218
tp219
a(S'196288'
p220
S'727818'
p221
tp222
a(g151
g150
tp223
a(g173
g172
tp224
a(S'173065'
p225
g51
tp226
a(S'411369'
p227
g151
tp228
a(S'359067'
p229
S'2910'
p230
tp231
a(S'1412122'
p232
S'57934'
p233
tp234
a(g136
S'1442163'
p235
tp236
a(g198
g182
tp237
a(g65
g69
tp238
a(g42
g162
tp239
a(S'26724'
p240
S'12486'
p241
tp242
a(S'163665'
p243
S'8650'
p244
tp245
a(S'37434'
p246
S'115950'
p247
tp248
a(g172
S'972663'
p249
tp250
a(S'87751'
p251
S'260796'
p252
tp253
a(g170
g169
tp254
a(g115
g114
tp255
a(g83
S'26596'
p256
tp257
a(g145
g74
tp258
a(g94
g185
tp259
a(S'315165'
p260
S'1635'
p261
tp262
a(g214
g47
tp263
a(g42
g185
tp264
a(g15
g21
tp265
a(S'66019'
p266
S'228568'
p267
tp268
a(g126
S'152999'
p269
tp270
a(g27
g26
tp271
a(g74
g73
tp272
a(g109
S'955828'
p273
tp274
a(S'34012'
p275
g218
tp276
a(g19
g24
tp277
a(g252
g190
tp278
a(S'107763'
p279
g57
tp280
a(S'1054215'
p281
S'63729'
p282
tp283
a(g48
g71
tp284
a(S'222907'
p285
S'1990551'
p286
tp287
a(g16
g21
tp288
a(g249
g173
tp289
a(S'1312933'
p290
S'763584'
p291
tp292
a(g77
g76
tp293
a(g77
S'86148'
p294
tp295
a(g180
g157
tp296
a(g101
g100
tp297
a(g218
g217
tp298
a(g241
g190
tp299
a(S'194983'
p300
S'73473'
p301
tp302
a(S'345480'
p303
g103
tp304
a(g7
g6
tp305
a(g64
S'140444'
p306
tp307
a(g13
g12
tp308
a(S'1962294'
p309
g135
tp310
a(S'205146'
p311
S'15342'
p312
tp313
a(S'268102'
p314
S'1967784'
p315
tp316
a(g182
g203
tp317
a(S'160582'
p318
S'293124'
p319
tp320
a(g154
g153
tp321
a(g10
g9
tp322
a(g104
g303
tp323
a(g160
g192
tp324
a(S'138270'
p325
S'14390'
p326
tp327
a(g208
S'204474'
p328
tp329
a(S'45430'
p330
S'1297561'
p331
tp332
a(g127
g126
tp333
a(S'295262'
p334
S'982803'
p335
tp336
a(g89
g76
tp337
a(g104
g103
tp338
a(g335
g334
tp339
a(S'562784'
p340
S'90089'
p341
tp342
a(g103
g303
tp343
a(S'1017951'
p344
S'238898'
p345
tp346
a(g190
g241
tp347
a(g185
g94
tp348
a(g36
g35
tp349
a(g89
g294
tp350
a(g89
g88
tp351
a(g203
g183
tp352
a(g282
g281
tp353
a(g252
g251
tp354
a(S'92491'
p355
g97
tp356
a(g166
S'1482686'
p357
tp358
a(g47
g214
tp359
a(S'126771'
p360
S'167230'
p361
tp362
a(g185
g42
tp363
a(g153
S'35350'
p364
tp365
a(g47
g91
tp366
a(S'20122'
p367
g193
tp368
a(g355
g301
tp369
a(g201
g200
tp370
a(g179
g156
tp371
a(g261
g260
tp372
a(g301
g300
tp373
a(S'248790'
p374
S'1067393'
p375
tp376
a(g142
g141
tp377
a(g129
g101
tp378
a(g39
g38
tp379
a(g157
g180
tp380
a(g33
S'316746'
p381
tp382
a(g294
g89
tp383
a(g94
g41
tp384
a(g97
g148
tp385
a(g136
g309
tp386
a(g135
g235
tp387
a(g187
g141
tp388
a(S'33433'
p389
g326
tp390
a(g48
g214
tp391
a(g151
g227
tp392
a(g141
S'145703'
p393
tp394
a(g190
g252
tp395
a(S'1980773'
p396
g164
tp397
a(g94
g93
tp398
a(g306
g64
tp399
a(S'236293'
p400
S'9036'
p401
tp402
a(S'5136'
p403
S'34952'
p404
tp405
a(g50
g106
tp406
a(g21
g15
tp407
a(g29
g166
tp408
a(g233
g232
tp409
a(g364
g153
tp410
a(g83
g82
tp411
a(g157
g156
tp412
a(g64
g69
tp413
a(g256
g83
tp414
a(S'106039'
p415
g44
tp416
a(g193
g192
tp417
a(S'86406'
p418
g176
tp419
a(g69
g65
tp420
a(S'31990'
p421
g88
tp422
a(S'448638'
p423
S'128581'
p424
tp425
a(g315
g314
tp426
a(g214
g48
tp427
a(g240
S'574963'
p428
tp429
a(g401
g400
tp430
a(g65
g138
tp431
a(g29
g357
tp432
a(S'141128'
p433
S'291142'
p434
tp435
a(g267
g266
tp436
a(S'300162'
p437
S'459195'
p438
tp439
a(g64
g67
tp440
a(g89
g421
tp441
a(g279
g56
tp442
a(g217
g275
tp443
a(g341
S'1238843'
p444
tp445
a(g195
g132
tp446
a(g438
g100
tp447
a(g136
g135
tp448
a(g306
g69
tp449
a(g275
g217
tp450
a(g67
g306
tp451
a(g437
g100
tp452
a(g101
g437
tp453
a(g45
S'706'
p454
tp455
a(S'730191'
p456
S'3774'
p457
tp458
a(g67
g138
tp459
a(g244
g243
tp460
a(g269
g279
tp461
a(g424
g423
tp462
a(S'41773'
p463
g311
tp464
a(g44
g415
tp465
a(g101
g129
tp466
a(g142
g187
tp467
a(g65
g306
tp468
a(S'95194'
p469
S'123925'
p470
tp471
a(g241
g240
tp472
a(S'146350'
p473
S'174155'
p474
tp475
a(g269
g56
tp476
a(g67
g64
tp477
a(g48
g47
tp478
a(S'1974848'
p479
S'156467'
p480
tp481
a(g306
g138
tp482
a(S'78457'
p483
S'24714'
p484
tp485
a(g195
g133
tp486
a(g4
g111
tp487
a(g480
g479
tp488
a(g3
g111
tp489
a(g51
g225
tp490
a(g138
g306
tp491
a(g198
g203
tp492
a(g160
g193
tp493
a(g64
g138
tp494
a(g312
g311
tp495
a(g457
g456
tp496
a(g463
g312
tp497
a(g164
g120
tp498
a(g193
g160
tp499
a(g76
g89
tp500
a(g160
g159
tp501
a(g311
g463
tp502
a(g319
g318
tp503
a(S'354786'
p504
S'75439'
p505
tp506
a(g404
g403
tp507
a(g145
g73
tp508
a(g183
g182
tp509
a(g33
g32
tp510
a(g148
g97
tp511
a(g130
g129
tp512
a(g53
S'341627'
p513
tp514
a(g56
g279
tp515
a(g57
g279
tp516
a(g19
g18
tp517
a(g111
g4
tp518
a(g218
S'1946001'
p519
tp520
a(g118
g117
tp521
a(g135
g309
tp522
a(S'261307'
p523
g229
tp524
a(g112
g111
tp525
a(g230
g229
tp526
a(g341
g340
tp527
a(g421
g89
tp528
a(g166
g30
tp529
a(g484
g483
tp530
a(g69
g67
tp531
a(g328
g208
tp532
a(g187
g142
tp533
a(g91
g48
tp534
a(g345
g344
tp535
a(g176
g418
tp536
a(S'70176'
p537
S'126289'
p538
tp539
a(g138
g65
tp540
a(S'32131'
p541
g401
tp542
a(g355
g98
tp543
a(g203
g182
tp544
a(g65
g64
tp545
a(g381
g33
tp546
a(g108
S'26934'
p547
tp548
a(g361
g360
tp549
a(g240
g189
tp550
a(g56
g126
tp551
a(g235
g135
tp552
a(g519
g218
tp553
a(g162
g42
tp554
a(g256
g82
tp555
a(g91
g214
tp556
a(g76
g88
tp557
a(g221
g220
tp558
a(g294
g77
tp559
a(g235
g309
tp560
a(g133
g132
tp561
a(g326
g389
tp562
a(g357
g30
tp563
a(g438
g437
tp564
a(g164
g396
tp565
a(g547
g108
tp566
a(S'1134'
p567
g4
tp568
a(g4
g3
tp569
a(g77
g88
tp570
a(g328
g209
tp571
a(g193
g367
tp572
a(g309
g235
tp573
a(g132
g195
tp574
a(g24
g19
tp575
a(g206
g205
tp576
a(g203
g198
tp577
a(g156
g179
tp578
a(g173
g249
tp579
a(g88
g76
tp580
a(g312
g463
tp581
a(g71
g48
tp582
a(g76
g294
tp583
a(g162
g185
tp584
a(g393
g141
tp585
a(g138
g67
tp586
a(g218
g275
tp587
a(g71
g47
tp588
a(g60
g59
tp589
a(g97
g355
tp590
a(g269
g126
tp591
a(g279
g126
tp592
a(g444
g341
tp593
a(g88
g294
tp594
a(g74
g145
tp595
a(g62
g106
tp596
a(g148
g98
tp597
a(g69
g64
tp598
a(g88
g421
tp599
a(g215
g214
tp600
a(g235
g136
tp601
a(g401
g541
tp602
a(S'153504'
p603
g201
tp604
a(g36
S'37273'
p605
tp606
a(g301
g355
tp607
a(g454
g45
tp608
a(g567
g3
tp609
a(g434
g433
tp610
a(g357
g29
tp611
a(g54
g53
tp612
a(g24
g18
tp613
a(g523
g230
tp614
a(g201
g603
tp615
a(g400
g541
tp616
a(g89
g77
tp617
a(g249
g172
tp618
a(g98
g97
tp619
a(g35
g605
tp620
a(g62
g50
tp621
a(g326
g325
tp622
a(g192
g160
tp623
a(g109
g108
tp624
a(g273
g109
tp625
a(g470
g469
tp626
a(g286
g285
tp627
a(g106
g62
tp628
a(g57
g56
tp629
a(g309
g136
tp630
a(g98
g355
tp631
a(g86
g85
tp632
a(g120
g396
tp633
a(g396
g120
tp634
a(g190
g189
tp635
a(g437
g101
tp636
a(g189
g240
tp637
a(g294
g76
tp638
a(g3
g567
tp639
a(g67
g65
tp640
a(g185
g162
tp641
a(g4
g567
tp642
a(g21
g16
tp643
a(g331
g330
tp644
a(g91
g47
tp645
a(g375
g374
tp646
a(g124
g123
tp647
a(g275
g519
tp648
a(g229
g523
tp649
a(g214
g91
tp650
a(S'1337641'
p651
S'120059'
p652
tp653
a(g279
g269
tp654
a(g294
g88
tp655
a(g30
g357
tp656
a(g69
g306
tp657
a(g303
g104
tp658
a(g541
g400
tp659
a(g538
g537
tp660
a(g56
g269
tp661
a(g474
g473
tp662
a(g230
g523
tp663
a(g138
g69
tp664
a(g166
g29
tp665
a(g185
g41
tp666
a(g209
g208
tp667
a(g652
g651
tp668
a(g100
g437
tp669
a(g306
g67
tp670
a(g93
g41
tp671
a(g519
g275
tp672
a(g428
g240
tp673
a(g77
g89
tp674
a(g357
g166
tp675
a(g306
g65
tp676
a(g209
g328
tp677
a(g180
g179
tp678
a(g291
g290
tp679
a(g121
g120
tp680
a(g513
g53
tp681
a(g126
g56
tp682
a(g126
g279
tp683
a(g505
g504
tp684
a(g41
g93
tp685
a(g82
g256
tp686
a(g247
g246
tp687
a(g177
g176
tp688
a(g100
g438
tp689
a(g69
g138
tp690
a(g605
g35
tp691
a(g42
g41
tp692
a(g605
g36
tp693
atRp694
.