c__builtin__
set
p1
((lp2
(S'84183'
p3
S'1970284'
p4
tp5
a(S'270934'
p6
S'45489'
p7
tp8
a(S'231565'
p9
S'107097'
p10
tp11
a(S'594788'
p12
S'100010'
p13
tp14
a(S'14395'
p15
S'111351'
p16
tp17
a(S'193832'
p18
S'319566'
p19
tp20
a(S'33368'
p21
S'404010'
p22
tp23
a(S'315165'
p24
S'308360'
p25
tp26
a(g15
S'49331'
p27
tp28
a(S'1967422'
p29
S'1035999'
p30
tp31
a(S'110039'
p32
S'958215'
p33
tp34
a(S'31674'
p35
S'65652'
p36
tp37
a(S'196288'
p38
S'727818'
p39
tp40
a(S'382210'
p41
S'239628'
p42
tp43
a(S'77617'
p44
S'337742'
p45
tp46
a(S'256325'
p47
S'164080'
p48
tp49
a(S'248226'
p50
S'897948'
p51
tp52
a(S'321281'
p53
S'3471'
p54
tp55
a(S'174694'
p56
S'448638'
p57
tp58
a(S'6162'
p59
S'36559'
p60
tp61
a(S'1134'
p62
S'135968'
p63
tp64
a(S'22903'
p65
S'374124'
p66
tp67
a(g66
S'86484'
p68
tp69
a(S'82704'
p70
S'195344'
p71
tp72
a(S'165965'
p73
g68
tp74
a(S'480910'
p75
S'24205'
p76
tp77
a(S'639658'
p78
S'316746'
p79
tp80
a(S'701211'
p81
S'309071'
p82
tp83
a(S'125559'
p84
S'358441'
p85
tp86
a(S'24684'
p87
S'222259'
p88
tp89
a(S'1611542'
p90
S'1177880'
p91
tp92
a(S'11667'
p93
S'24714'
p94
tp95
a(S'321223'
p96
S'1054215'
p97
tp98
a(S'75'
p99
S'107225'
p100
tp101
a(S'203661'
p102
S'10753'
p103
tp104
a(S'205683'
p105
S'28034'
p106
tp107
a(g13
g12
tp108
a(g19
S'81333'
p109
tp110
a(S'126100'
p111
S'1958346'
p112
tp113
a(S'6229'
p114
g93
tp115
a(S'147919'
p116
g12
tp117
a(S'140623'
p118
S'42533'
p119
tp120
a(S'1981037'
p121
S'1482686'
p122
tp123
a(S'222232'
p124
S'823946'
p125
tp126
a(S'237857'
p127
g63
tp128
a(S'251645'
p129
S'435026'
p130
tp131
a(S'15143'
p132
S'55735'
p133
tp134
a(S'204474'
p135
S'1179102'
p136
tp137
a(S'38203'
p138
S'455522'
p139
tp140
a(S'653663'
p141
S'138644'
p142
tp143
a(g60
g59
tp144
a(g56
S'341627'
p145
tp146
a(S'86148'
p147
g138
tp148
a(g79
g78
tp149
a(S'222041'
p150
S'181441'
p151
tp152
a(S'158019'
p153
S'30401'
p154
tp155
a(S'738505'
p156
S'1946001'
p157
tp158
a(S'73473'
p159
S'92491'
p160
tp161
a(g112
S'64571'
p162
tp163
a(g12
g116
tp164
a(g48
g47
tp165
a(g121
S'14440'
p166
tp167
a(S'270190'
p168
S'1453603'
p169
tp170
a(S'67256'
p171
S'221099'
p172
tp173
a(S'1935888'
p174
g171
tp175
a(S'126297'
p176
S'83951'
p177
tp178
a(g33
g166
tp179
a(S'312765'
p180
g94
tp181
a(S'26321'
p182
S'16683'
p183
tp184
a(g63
S'1356428'
p185
tp186
a(S'925293'
p187
S'481093'
p188
tp189
a(S'271816'
p190
S'8448'
p191
tp192
a(S'576155'
p193
S'1936002'
p194
tp195
a(S'22344'
p196
S'218977'
p197
tp198
a(g121
g33
tp199
a(g174
S'193555'
p200
tp201
a(S'91946'
p202
S'73729'
p203
tp204
a(g45
g44
tp205
a(g190
S'832291'
p206
tp207
a(S'406389'
p208
S'113124'
p209
tp210
a(g125
g124
tp211
a(S'76989'
p212
S'65607'
p213
tp214
a(g105
S'309811'
p215
tp216
a(g119
g118
tp217
a(S'358947'
p218
S'39929'
p219
tp220
a(S'485051'
p221
S'1949595'
p222
tp223
a(g119
S'301451'
p224
tp225
a(S'359067'
p226
S'2910'
p227
tp228
a(S'26596'
p229
S'10257'
p230
tp231
a(S'1073960'
p232
S'108212'
p233
tp234
a(S'228568'
p235
S'66019'
p236
tp237
a(S'1412122'
p238
S'57934'
p239
tp240
a(S'77024'
p241
S'59515'
p242
tp243
a(g232
S'763584'
p244
tp245
a(S'818086'
p246
S'442197'
p247
tp248
a(S'284071'
p249
g73
tp250
a(S'26724'
p251
S'12486'
p252
tp253
a(S'37434'
p254
S'115950'
p255
tp256
a(S'897962'
p257
S'972663'
p258
tp259
a(S'336307'
p260
g194
tp261
a(S'293819'
p262
g229
tp263
a(S'1938480'
p264
g71
tp265
a(S'45336'
p266
S'31990'
p267
tp268
a(g233
g244
tp269
a(S'37273'
p270
S'719789'
p271
tp272
a(g249
g215
tp273
a(S'67731'
p274
S'181694'
p275
tp276
a(g236
g235
tp277
a(g242
g241
tp278
a(g33
g121
tp279
a(g30
g29
tp280
a(g18
g109
tp281
a(g71
g70
tp282
a(S'264179'
p283
S'13832'
p284
tp285
a(S'1968552'
p286
S'14390'
p287
tp288
a(S'5765'
p289
S'127696'
p290
tp291
a(S'34012'
p292
g222
tp293
a(g91
g219
tp294
a(S'260796'
p295
g197
tp296
a(S'107763'
p297
S'1959759'
p298
tp299
a(g73
g249
tp300
a(g157
g221
tp301
a(S'105264'
p302
g191
tp303
a(S'26934'
p304
S'80788'
p305
tp306
a(g206
g190
tp307
a(g266
g147
tp308
a(S'87054'
p309
S'1962294'
p310
tp311
a(g222
g221
tp312
a(g252
g197
tp313
a(S'194983'
p314
g159
tp315
a(S'295562'
p316
g60
tp317
a(g4
g3
tp318
a(S'406255'
p319
S'227356'
p320
tp321
a(g310
g309
tp322
a(g145
g56
tp323
a(g190
S'60139'
p324
tp325
a(S'160582'
p326
S'293124'
p327
tp328
a(g169
g168
tp329
a(g25
g24
tp330
a(g172
g174
tp331
a(S'44762'
p332
S'268102'
p333
tp334
a(S'1297561'
p335
S'251378'
p336
tp337
a(S'138270'
p338
g287
tp339
a(S'95194'
p340
S'1608585'
p341
tp342
a(g188
S'86406'
p343
tp344
a(g209
g53
tp345
a(g53
g209
tp346
a(g287
g286
tp347
a(S'562784'
p348
S'90089'
p349
tp350
a(S'18356'
p351
S'345480'
p352
tp353
a(g283
g262
tp354
a(S'257337'
p355
S'3774'
p356
tp357
a(S'1017951'
p358
S'238898'
p359
tp360
a(g197
g252
tp361
a(g88
g87
tp362
a(g324
g191
tp363
a(g338
g286
tp364
a(g160
g111
tp365
a(g166
g122
tp366
a(g127
g62
tp367
a(g215
g249
tp368
a(S'278573'
p369
S'105337'
p370
tp371
a(S'300162'
p372
S'760360'
p373
tp374
a(S'20122'
p375
g200
tp376
a(g370
g369
tp377
a(g160
g159
tp378
a(S'128581'
p379
S'163125'
p380
tp381
a(g209
g208
tp382
a(S'16754'
p383
g379
tp384
a(g119
S'53733'
p385
tp386
a(g159
g314
tp387
a(S'18484'
p388
S'7336'
p389
tp390
a(S'248790'
p391
S'1067393'
p392
tp393
a(S'167230'
p394
S'132930'
p395
tp396
a(g51
g50
tp397
a(g42
g41
tp398
a(S'111597'
p399
S'45430'
p400
tp401
a(S'159744'
p402
g79
tp403
a(g219
g91
tp404
a(g122
g33
tp405
a(g66
g65
tp406
a(g76
g75
tp407
a(S'76821'
p408
g48
tp409
a(g203
S'62038'
p410
tp411
a(g90
g218
tp412
a(g197
g295
tp413
a(S'1980773'
p414
g177
tp415
a(g106
g105
tp416
a(S'121065'
p417
g310
tp418
a(S'179722'
p419
g298
tp420
a(S'236293'
p421
S'9036'
p422
tp423
a(S'5136'
p424
S'34952'
p425
tp426
a(g267
g88
tp427
a(g156
g222
tp428
a(g32
g166
tp429
a(g160
g314
tp430
a(g239
g238
tp431
a(g208
g54
tp432
a(g372
g141
tp433
a(g197
g196
tp434
a(g85
g84
tp435
a(g262
g284
tp436
a(g22
g21
tp437
a(g65
S'103618'
p438
tp439
a(g133
g132
tp440
a(g200
g174
tp441
a(g138
g147
tp442
a(g10
g9
tp443
a(g267
g87
tp444
a(g116
g13
tp445
a(g171
g174
tp446
a(g218
g90
tp447
a(g251
S'574963'
p448
tp449
a(g422
g421
tp450
a(S'72572'
p451
S'75439'
p452
tp453
a(g32
g122
tp454
a(S'141128'
p455
S'291142'
p456
tp457
a(g200
g375
tp458
a(g109
g19
tp459
a(g88
g267
tp460
a(g7
g6
tp461
a(g221
g292
tp462
a(g349
S'1238843'
p463
tp464
a(g194
g193
tp465
a(S'153504'
p466
g141
tp467
a(S'459195'
p468
S'8061'
p469
tp470
a(g206
g27
tp471
a(g100
g99
tp472
a(g292
g221
tp473
a(g373
g372
tp474
a(g45
S'706'
p475
tp476
a(g283
S'143316'
p477
tp478
a(S'152999'
p479
g297
tp480
a(g33
g32
tp481
a(g13
g116
tp482
a(g183
g182
tp483
a(S'315940'
p484
S'45964'
p485
tp486
a(g252
g251
tp487
a(S'146350'
p488
S'174155'
p489
tp490
a(g121
g32
tp491
a(S'897'
p492
S'79240'
p493
tp494
a(g400
g399
tp495
a(g68
g249
tp496
a(g230
S'411369'
p497
tp498
a(g314
g160
tp499
a(g203
g202
tp500
a(g114
g180
tp501
a(g185
g63
tp502
a(g206
g324
tp503
a(g262
g283
tp504
a(g172
g200
tp505
a(g493
g492
tp506
a(S'41773'
p507
S'15342'
p508
tp509
a(g463
g348
tp510
a(g177
g176
tp511
a(g200
g172
tp512
a(g221
g157
tp513
a(g172
g171
tp514
a(g271
g270
tp515
a(g327
g326
tp516
a(g63
g62
tp517
a(g425
g424
tp518
a(g452
g451
tp519
a(g264
g70
tp520
a(S'210883'
p521
g99
tp522
a(g479
g298
tp523
a(g191
g190
tp524
a(g142
g141
tp525
a(g489
g488
tp526
a(g114
g94
tp527
a(g87
g267
tp528
a(S'307753'
p529
g356
tp530
a(g16
g15
tp531
a(g222
g157
tp532
a(g130
g129
tp533
a(S'261307'
p534
g226
tp535
a(g63
g127
tp536
a(g247
g246
tp537
a(g62
g127
tp538
a(g227
g226
tp539
a(g94
g180
tp540
a(S'120059'
p541
S'1337641'
p542
tp543
a(g166
g33
tp544
a(g218
g91
tp545
a(g191
g302
tp546
a(g139
g138
tp547
a(g194
g260
tp548
a(g91
g90
tp549
a(g359
g358
tp550
a(S'168207'
p551
g84
tp552
a(g57
g145
tp553
a(S'70176'
p554
S'126289'
p555
tp556
a(g166
g121
tp557
a(g233
g232
tp558
a(S'32131'
p559
g422
tp560
a(S'1884815'
p561
S'1980123'
p562
tp563
a(g310
g417
tp564
a(g380
g379
tp565
a(g79
g402
tp566
a(g305
g304
tp567
a(g477
g229
tp568
a(g27
g206
tp569
a(g251
g196
tp570
a(g229
g262
tp571
a(g244
g233
tp572
a(S'112902'
p573
S'24020'
p574
tp575
a(g574
g573
tp576
a(g157
g222
tp577
a(g109
g18
tp578
a(g286
g338
tp579
a(g229
g284
tp580
a(g91
g218
tp581
a(g284
g283
tp582
a(g97
g96
tp583
a(g39
g38
tp584
a(S'205146'
p585
S'7519'
p586
tp587
a(S'20590'
p588
S'106638'
p589
tp590
a(g147
g266
tp591
a(g267
g266
tp592
a(g336
g335
tp593
a(g122
g121
tp594
a(g275
g274
tp595
a(g99
g521
tp596
a(g177
g414
tp597
a(S'140444'
p598
S'28176'
p599
tp600
a(g229
g477
tp601
a(g266
g87
tp602
a(g356
g529
tp603
a(g356
g355
tp604
a(g54
g209
tp605
a(g417
g309
tp606
a(g151
g150
tp607
a(g410
g203
tp608
a(g324
g206
tp609
a(g385
g119
tp610
a(g599
g598
tp611
a(g180
g114
tp612
a(g508
g507
tp613
a(g298
g297
tp614
a(S'64585'
p615
S'39522'
p616
tp617
a(g139
g147
tp618
a(g73
g215
tp619
a(g343
g188
tp620
a(S'305975'
p621
S'294184'
p622
tp623
a(g222
g292
tp624
a(g419
S'191010'
p625
tp626
a(g209
g54
tp627
a(g54
g53
tp628
a(g48
g408
tp629
a(g111
g160
tp630
a(g32
g121
tp631
a(g562
g561
tp632
a(g463
g349
tp633
a(g157
g156
tp634
a(g71
g264
tp635
a(g389
g388
tp636
a(g60
g316
tp637
a(g162
g112
tp638
a(g616
g615
tp639
a(g395
g394
tp640
a(g36
g35
tp641
a(g438
g65
tp642
a(g219
g218
tp643
a(g422
g559
tp644
a(g87
g266
tp645
a(S'652192'
p646
g270
tp647
a(g70
g264
tp648
a(g230
g229
tp649
a(g475
g45
tp650
a(g62
g185
tp651
a(g456
g455
tp652
a(g122
g32
tp653
a(g27
g15
tp654
a(g421
g559
tp655
a(g93
g114
tp656
a(g88
g266
tp657
a(g258
g257
tp658
a(g112
g111
tp659
a(g191
g324
tp660
a(g287
g338
tp661
a(g174
g172
tp662
a(g372
g142
tp663
a(g54
g208
tp664
a(g586
g585
tp665
a(g352
g351
tp666
a(g298
g419
tp667
a(g68
g73
tp668
a(g82
g81
tp669
a(g176
g414
tp670
a(g414
g176
tp671
a(g244
g232
tp672
a(g57
g56
tp673
a(g349
g348
tp674
a(g284
g262
tp675
a(g497
g230
tp676
a(g196
g251
tp677
a(g147
g139
tp678
a(g185
g62
tp679
a(g68
g66
tp680
a(g215
g73
tp681
a(g379
g383
tp682
a(g290
g289
tp683
a(g392
g391
tp684
a(g215
g105
tp685
a(g226
g534
tp686
a(g262
g477
tp687
a(g542
g541
tp688
a(g297
g479
tp689
a(g348
g463
tp690
a(g33
g122
tp691
a(g385
g224
tp692
a(g94
g93
tp693
a(g224
g385
tp694
a(g559
g421
tp695
a(g622
g621
tp696
a(g94
g114
tp697
a(g477
g283
tp698
a(g555
g554
tp699
a(g141
g372
tp700
a(g19
g18
tp701
a(g599
g438
tp702
a(g166
g32
tp703
a(g213
g212
tp704
a(g333
g332
tp705
a(g103
g102
tp706
a(g324
g190
tp707
a(g477
g262
tp708
a(g320
g319
tp709
a(g448
g251
tp710
a(g298
g479
tp711
a(g141
g466
tp712
a(g266
g88
tp713
a(g122
g166
tp714
a(g213
g135
tp715
a(g309
g417
tp716
a(g249
g68
tp717
a(g224
g119
tp718
a(g469
g468
tp719
a(g625
g419
tp720
a(g222
g156
tp721
a(g284
g229
tp722
a(g145
g57
tp723
a(g255
g254
tp724
a(g135
g213
tp725
a(g438
g599
tp726
a(g188
g187
tp727
a(g589
g588
tp728
a(g84
g551
tp729
a(g136
g135
tp730
a(g142
g372
tp731
a(g270
g646
tp732
a(g485
g484
tp733
a(g341
g340
tp734
a(g154
g153
tp735
atRp736
.