c__builtin__
set
p1
((lp2
(S'84183'
p3
S'1970284'
p4
tp5
a(S'270934'
p6
S'45489'
p7
tp8
a(S'312765'
p9
S'11667'
p10
tp11
a(S'231565'
p12
S'107097'
p13
tp14
a(S'594788'
p15
S'100010'
p16
tp17
a(S'6229'
p18
g10
tp19
a(S'193832'
p20
S'319566'
p21
tp22
a(S'33368'
p23
S'404010'
p24
tp25
a(S'126299'
p26
S'69293'
p27
tp28
a(S'315165'
p29
S'308360'
p30
tp31
a(S'14395'
p32
S'49331'
p33
tp34
a(S'1967422'
p35
S'1035999'
p36
tp37
a(S'110039'
p38
S'958215'
p39
tp40
a(S'31674'
p41
S'65652'
p42
tp43
a(S'95194'
p44
S'1608585'
p45
tp46
a(S'382210'
p47
S'239628'
p48
tp49
a(S'91946'
p50
S'73729'
p51
tp52
a(S'77617'
p53
S'337742'
p54
tp55
a(S'1405040'
p56
S'216476'
p57
tp58
a(S'248226'
p59
S'897948'
p60
tp61
a(S'321281'
p62
S'3471'
p63
tp64
a(S'174694'
p65
S'448638'
p66
tp67
a(g57
S'296634'
p68
tp69
a(S'222259'
p70
S'86148'
p71
tp72
a(S'1134'
p73
S'135968'
p74
tp75
a(S'374124'
p76
S'86484'
p77
tp78
a(S'82704'
p79
S'195344'
p80
tp81
a(S'165965'
p82
g77
tp83
a(S'480910'
p84
S'24205'
p85
tp86
a(S'639658'
p87
S'316746'
p88
tp89
a(S'701211'
p90
S'309071'
p91
tp92
a(S'256325'
p93
S'164080'
p94
tp95
a(S'24684'
p96
g70
tp97
a(S'1611542'
p98
S'1177880'
p99
tp100
a(g10
S'24714'
p101
tp102
a(S'321223'
p103
S'1054215'
p104
tp105
a(S'75'
p106
S'107225'
p107
tp108
a(S'203661'
p109
S'10753'
p110
tp111
a(S'205683'
p112
S'28034'
p113
tp114
a(g16
g15
tp115
a(S'126100'
p116
S'1958346'
p117
tp118
a(S'295562'
p119
S'6162'
p120
tp121
a(S'147919'
p122
g15
tp123
a(S'140623'
p124
S'42533'
p125
tp126
a(S'1981037'
p127
S'1482686'
p128
tp129
a(S'222232'
p130
S'823946'
p131
tp132
a(g74
S'237857'
p133
tp134
a(S'251645'
p135
S'435026'
p136
tp137
a(S'81333'
p138
g20
tp139
a(S'38203'
p140
S'455522'
p141
tp142
a(S'653663'
p143
S'138644'
p144
tp145
a(g65
S'341627'
p146
tp147
a(g71
g140
tp148
a(g94
S'76821'
p149
tp150
a(S'576155'
p151
S'336307'
p152
tp153
a(S'222041'
p154
S'181441'
p155
tp156
a(S'158019'
p157
S'30401'
p158
tp159
a(S'738505'
p160
S'1946001'
p161
tp162
a(S'73473'
p163
S'92491'
p164
tp165
a(g117
S'64571'
p166
tp167
a(g125
g124
tp168
a(S'15143'
p169
S'55735'
p170
tp171
a(g127
S'14440'
p172
tp173
a(S'270190'
p174
S'1453603'
p175
tp176
a(S'67256'
p177
S'221099'
p178
tp179
a(S'1935888'
p180
g177
tp181
a(S'126297'
p182
S'83951'
p183
tp184
a(g39
g172
tp185
a(g9
g101
tp186
a(S'26321'
p187
S'16683'
p188
tp189
a(g74
S'1356428'
p190
tp191
a(S'925293'
p192
S'481093'
p193
tp194
a(g125
S'301451'
p195
tp196
a(S'271816'
p197
S'8448'
p198
tp199
a(S'227356'
p200
S'406255'
p201
tp202
a(S'22344'
p203
S'218977'
p204
tp205
a(S'982803'
p206
S'6329'
p207
tp208
a(g127
g39
tp209
a(g180
S'193555'
p210
tp211
a(g76
g82
tp212
a(g54
g53
tp213
a(g197
S'832291'
p214
tp215
a(g131
g130
tp216
a(S'76989'
p217
S'65607'
p218
tp219
a(g112
S'309811'
p220
tp221
a(g15
g122
tp222
a(S'358947'
p223
S'39929'
p224
tp225
a(S'485051'
p226
S'1949595'
p227
tp228
a(S'196288'
p229
S'727818'
p230
tp231
a(S'359067'
p232
S'2910'
p233
tp234
a(S'26596'
p235
S'10257'
p236
tp237
a(S'1073960'
p238
S'108212'
p239
tp240
a(S'1412122'
p241
S'57934'
p242
tp243
a(S'77024'
p244
S'59515'
p245
tp246
a(g214
g197
tp247
a(S'818086'
p248
S'442197'
p249
tp250
a(S'284071'
p251
g82
tp252
a(S'26724'
p253
S'12486'
p254
tp255
a(S'37434'
p256
S'115950'
p257
tp258
a(S'897962'
p259
S'972663'
p260
tp261
a(g188
g187
tp262
a(S'13832'
p263
S'143316'
p264
tp265
a(S'1938480'
p266
g80
tp267
a(S'45336'
p268
S'31990'
p269
tp270
a(S'14390'
p271
S'1968552'
p272
tp273
a(S'406389'
p274
g62
tp275
a(g239
S'763584'
p276
tp277
a(g113
g220
tp278
a(S'37273'
p279
S'719789'
p280
tp281
a(g251
g220
tp282
a(S'67731'
p283
S'181694'
p284
tp285
a(g245
g244
tp286
a(g39
g127
tp287
a(g36
g35
tp288
a(g66
g146
tp289
a(S'264179'
p290
g263
tp291
a(g272
g271
tp292
a(S'5765'
p293
S'127696'
p294
tp295
a(g99
g224
tp296
a(S'260796'
p297
g204
tp298
a(S'107763'
p299
S'1959759'
p300
tp301
a(g161
g226
tp302
a(S'105264'
p303
g198
tp304
a(g238
g276
tp305
a(g127
g38
tp306
a(g227
g226
tp307
a(g254
g204
tp308
a(S'194983'
p309
g163
tp310
a(g119
S'36559'
p311
tp312
a(g4
g3
tp313
a(g201
g200
tp314
a(g146
g65
tp315
a(g197
S'60139'
p316
tp317
a(S'160582'
p318
S'293124'
p319
tp320
a(g175
g174
tp321
a(g93
g149
tp322
a(g30
g29
tp323
a(g178
g180
tp324
a(S'44762'
p325
S'268102'
p326
tp327
a(S'1297561'
p328
S'251378'
p329
tp330
a(g149
g93
tp331
a(S'113124'
p332
g274
tp333
a(g193
S'86406'
p334
tp335
a(g332
g62
tp336
a(g62
g332
tp337
a(g21
g20
tp338
a(S'562784'
p339
S'90089'
p340
tp341
a(S'18356'
p342
S'345480'
p343
tp344
a(g290
S'293819'
p345
tp346
a(S'1017951'
p347
S'238898'
p348
tp349
a(g133
g190
tp350
a(g204
g254
tp351
a(g220
g113
tp352
a(S'414539'
p353
S'80788'
p354
tp355
a(g70
g96
tp356
a(g316
g198
tp357
a(S'138270'
p358
g272
tp359
a(g164
g116
tp360
a(g172
g128
tp361
a(g133
g73
tp362
a(g10
g9
tp363
a(g220
g251
tp364
a(S'20122'
p365
g210
tp366
a(g20
g138
tp367
a(g164
g163
tp368
a(S'128581'
p369
S'163125'
p370
tp371
a(g274
g332
tp372
a(g66
g65
tp373
a(g163
g309
tp374
a(g48
g47
tp375
a(S'248790'
p376
S'1067393'
p377
tp378
a(S'167230'
p379
S'132930'
p380
tp381
a(g152
g151
tp382
a(g60
g59
tp383
a(g280
S'28176'
p384
tp385
a(S'111597'
p386
S'45430'
p387
tp388
a(S'159744'
p389
g88
tp390
a(g71
g70
tp391
a(g284
g283
tp392
a(g85
g84
tp393
a(g149
g94
tp394
a(g51
S'62038'
p395
tp396
a(g98
g223
tp397
a(g224
g99
tp398
a(g204
g297
tp399
a(S'1980773'
p400
g183
tp401
a(g113
g112
tp402
a(S'121065'
p403
S'1962294'
p404
tp405
a(S'179722'
p406
g300
tp407
a(S'236293'
p408
S'9036'
p409
tp410
a(g384
g280
tp411
a(S'5136'
p412
S'34952'
p413
tp414
a(S'1436199'
p415
S'1634439'
p416
tp417
a(g160
g227
tp418
a(g120
g119
tp419
a(g38
g172
tp420
a(g164
g309
tp421
a(g242
g241
tp422
a(g274
g63
tp423
a(g204
g203
tp424
a(g345
g263
tp425
a(g183
g400
tp426
a(S'22903'
p427
S'103618'
p428
tp429
a(g170
g169
tp430
a(g210
g180
tp431
a(g140
g71
tp432
a(g13
g12
tp433
a(g269
g96
tp434
a(g122
g16
tp435
a(g177
g180
tp436
a(g223
g98
tp437
a(g253
S'574963'
p438
tp439
a(g409
g408
tp440
a(g263
g345
tp441
a(g63
g274
tp442
a(S'141128'
p443
S'291142'
p444
tp445
a(g70
g269
tp446
a(g7
g6
tp447
a(S'8061'
p448
S'459195'
p449
tp450
a(S'140444'
p451
g280
tp452
a(S'153504'
p453
g143
tp454
a(g449
g448
tp455
a(g214
g33
tp456
a(g107
g106
tp457
a(S'34012'
p458
g226
tp459
a(g54
S'706'
p460
tp461
a(g332
g63
tp462
a(g354
g353
tp463
a(S'152999'
p464
g299
tp465
a(S'191010'
p466
g6
tp467
a(g39
g38
tp468
a(g16
g122
tp469
a(g152
S'1936002'
p470
tp471
a(S'315940'
p472
S'45964'
p473
tp474
a(S'1238843'
p475
g339
tp476
a(g254
g253
tp477
a(S'146350'
p478
S'174155'
p479
tp480
a(S'897'
p481
S'79240'
p482
tp483
a(g387
g386
tp484
a(g77
g251
tp485
a(g326
g325
tp486
a(g51
g50
tp487
a(g190
g74
tp488
a(g16
S'207150'
p489
tp490
a(g214
g316
tp491
a(g345
g290
tp492
a(g178
g210
tp493
a(g482
g481
tp494
a(g290
g264
tp495
a(g207
g206
tp496
a(g183
g182
tp497
a(g210
g178
tp498
a(g226
g161
tp499
a(g178
g177
tp500
a(g280
g279
tp501
a(g319
g318
tp502
a(g74
g73
tp503
a(g413
g412
tp504
a(g266
g79
tp505
a(S'210883'
p506
g106
tp507
a(g264
g290
tp508
a(g68
g57
tp509
a(g198
g197
tp510
a(g144
g143
tp511
a(g18
g101
tp512
a(g96
g269
tp513
a(S'307753'
p514
S'3774'
p515
tp516
a(g136
g135
tp517
a(S'261307'
p518
g232
tp519
a(g133
g74
tp520
a(g125
S'53733'
p521
tp522
a(g249
g248
tp523
a(g73
g133
tp524
a(g233
g232
tp525
a(g101
g9
tp526
a(g269
g70
tp527
a(g172
g39
tp528
a(g223
g99
tp529
a(g27
g26
tp530
a(g198
g303
tp531
a(g141
g140
tp532
a(g470
g152
tp533
a(g99
g98
tp534
a(g348
g347
tp535
a(S'168207'
p536
S'125559'
p537
tp538
a(S'70176'
p539
S'126289'
p540
tp541
a(g172
g127
tp542
a(g68
g56
tp543
a(g239
g238
tp544
a(g264
g263
tp545
a(S'32131'
p546
g409
tp547
a(S'1884815'
p548
S'1980123'
p549
tp550
a(g404
g403
tp551
a(g370
g369
tp552
a(g88
g389
tp553
a(g354
S'26934'
p554
tp555
a(g33
g214
tp556
a(g253
g203
tp557
a(g276
g239
tp558
a(S'112902'
p559
S'24020'
p560
tp561
a(g80
g79
tp562
a(g560
g559
tp563
a(g82
g251
tp564
a(g272
g358
tp565
a(g280
g451
tp566
a(g235
g263
tp567
a(g99
g223
tp568
a(g263
g290
tp569
a(g104
g103
tp570
a(g230
g229
tp571
a(S'205146'
p572
S'7519'
p573
tp574
a(S'20590'
p575
S'106638'
p576
tp577
a(g269
g268
tp578
a(g329
g328
tp579
a(g128
g127
tp580
a(g128
g39
tp581
a(g6
g466
tp582
a(g106
g506
tp583
a(g24
g23
tp584
a(g554
g354
tp585
a(g268
g96
tp586
a(g515
g514
tp587
a(g210
g365
tp588
a(g403
S'87054'
p589
tp590
a(g155
g154
tp591
a(g395
g51
tp592
a(g316
g214
tp593
a(g521
g125
tp594
a(g300
g299
tp595
a(S'64585'
p596
S'39522'
p597
tp598
a(g141
g71
tp599
a(g334
g193
tp600
a(S'305975'
p601
S'294184'
p602
tp603
a(g406
g466
tp604
a(g63
g62
tp605
a(g88
g87
tp606
a(g116
g164
tp607
a(g38
g127
tp608
a(g549
g548
tp609
a(g161
g160
tp610
a(g80
g266
tp611
a(g311
g119
tp612
a(g166
g117
tp613
a(g597
g596
tp614
a(g380
g379
tp615
a(g42
g41
tp616
a(g428
g427
tp617
a(g224
g223
tp618
a(g409
g546
tp619
a(g96
g268
tp620
a(S'652192'
p621
g279
tp622
a(g79
g266
tp623
a(g236
g235
tp624
a(g460
g54
tp625
a(g73
g190
tp626
a(g444
g443
tp627
a(g128
g38
tp628
a(g57
g56
tp629
a(g33
g32
tp630
a(g408
g546
tp631
a(g10
g18
tp632
a(g82
g76
tp633
a(g70
g268
tp634
a(g260
g259
tp635
a(g117
g116
tp636
a(g198
g316
tp637
a(g180
g178
tp638
a(S'300162'
p639
g144
tp640
a(g94
g93
tp641
a(g63
g332
tp642
a(g573
g572
tp643
a(g343
g342
tp644
a(g300
g406
tp645
a(g77
g82
tp646
a(g91
g90
tp647
a(g182
g400
tp648
a(g400
g182
tp649
a(g276
g238
tp650
a(g340
g339
tp651
a(g38
g128
tp652
a(g203
g253
tp653
a(g71
g141
tp654
a(g190
g73
tp655
a(g77
g76
tp656
a(g62
g274
tp657
a(g294
g293
tp658
a(g377
g376
tp659
a(g220
g112
tp660
a(g232
g518
tp661
a(g345
g264
tp662
a(S'1337641'
p663
S'120059'
p664
tp665
a(g299
g464
tp666
a(g339
g475
tp667
a(g39
g128
tp668
a(g309
g164
tp669
a(g190
g133
tp670
a(g101
g10
tp671
a(g546
g408
tp672
a(g602
g601
tp673
a(g101
g18
tp674
a(g416
g415
tp675
a(g540
g539
tp676
a(g489
g16
tp677
a(g479
g478
tp678
a(g172
g38
tp679
a(g218
g217
tp680
a(g664
g663
tp681
a(g110
g109
tp682
a(g316
g197
tp683
a(g264
g345
tp684
a(g438
g253
tp685
a(g143
g453
tp686
a(g268
g70
tp687
a(g128
g172
tp688
a(g589
g403
tp689
a(g251
g77
tp690
a(g195
g125
tp691
a(g226
g458
tp692
a(g466
g406
tp693
a(g227
g160
tp694
a(g263
g235
tp695
a(g146
g66
tp696
a(g257
g256
tp697
a(g193
g192
tp698
a(g576
g575
tp699
a(g537
g536
tp700
a(g144
g639
tp701
a(g56
g68
tp702
a(g279
g621
tp703
a(g473
g472
tp704
a(g45
g44
tp705
a(g158
g157
tp706
atRp707
.