c__builtin__
set
p1
((lp2
(S'1356428'
p3
S'50886'
p4
tp5
a(S'639658'
p6
S'159744'
p7
tp8
a(S'84183'
p9
S'1970284'
p10
tp11
a(S'77024'
p12
S'193832'
p13
tp14
a(S'34952'
p15
S'240996'
p16
tp17
a(S'45489'
p18
S'152999'
p19
tp20
a(S'227356'
p21
S'406255'
p22
tp23
a(S'594788'
p24
S'100010'
p25
tp26
a(S'14395'
p27
S'111351'
p28
tp29
a(g27
S'49331'
p30
tp31
a(S'1967422'
p32
S'1035999'
p33
tp34
a(S'110039'
p35
S'958215'
p36
tp37
a(S'5136'
p38
g16
tp39
a(S'406389'
p40
S'153504'
p41
tp42
a(S'196288'
p43
S'727818'
p44
tp45
a(S'1517127'
p46
S'652192'
p47
tp48
a(S'382210'
p49
S'239628'
p50
tp51
a(S'28176'
p52
S'86484'
p53
tp54
a(S'77617'
p55
S'337742'
p56
tp57
a(S'404010'
p58
S'1611542'
p59
tp60
a(S'6162'
p61
S'43336'
p62
tp63
a(S'1405040'
p64
S'216476'
p65
tp66
a(S'321281'
p67
S'3471'
p68
tp69
a(S'222259'
p70
S'86148'
p71
tp72
a(S'22903'
p73
S'374124'
p74
tp75
a(g74
g53
tp76
a(g53
S'103618'
p77
tp78
a(g58
S'126299'
p79
tp80
a(S'82704'
p81
S'195344'
p82
tp83
a(S'455522'
p84
S'45336'
p85
tp86
a(S'76821'
p87
S'164080'
p88
tp89
a(S'33433'
p90
S'14390'
p91
tp92
a(S'701211'
p93
S'309071'
p94
tp95
a(S'24684'
p96
g70
tp97
a(g59
S'1177880'
p98
tp99
a(S'205683'
p100
S'28034'
p101
tp102
a(g25
g24
tp103
a(S'126100'
p104
S'1958346'
p105
tp106
a(S'8061'
p107
S'760360'
p108
tp109
a(S'18356'
p110
S'107097'
p111
tp112
a(S'80788'
p113
S'213907'
p114
tp115
a(S'135968'
p116
S'237857'
p117
tp118
a(S'16754'
p119
S'163125'
p120
tp121
a(S'126297'
p122
S'1884815'
p123
tp124
a(S'15143'
p125
S'55735'
p126
tp127
a(S'191010'
p128
g18
tp129
a(S'42533'
p130
S'153024'
p131
tp132
a(S'62038'
p133
S'91946'
p134
tp135
a(S'87054'
p136
S'248226'
p137
tp138
a(S'1482686'
p139
g35
tp140
a(g52
g73
tp141
a(g88
g87
tp142
a(S'576155'
p143
S'336307'
p144
tp145
a(g96
g85
tp146
a(g81
S'1938480'
p147
tp148
a(g62
g61
tp149
a(g105
S'64571'
p150
tp151
a(S'10257'
p152
S'143316'
p153
tp154
a(S'270190'
p155
S'1453603'
p156
tp157
a(S'53733'
p158
g131
tp159
a(S'67256'
p160
S'221099'
p161
tp162
a(g122
S'83951'
p163
tp164
a(g36
S'14440'
p165
tp166
a(S'140444'
p167
g53
tp168
a(S'897962'
p169
S'1460883'
p170
tp171
a(g116
g3
tp172
a(S'925293'
p173
S'481093'
p174
tp175
a(S'271816'
p176
S'8448'
p177
tp178
a(g143
S'1936002'
p179
tp180
a(S'22344'
p181
S'218977'
p182
tp183
a(S'1935888'
p184
S'193555'
p185
tp186
a(g134
S'73729'
p187
tp188
a(g19
S'107763'
p189
tp190
a(g176
S'832291'
p191
tp192
a(g40
S'113124'
p193
tp194
a(S'16683'
p195
S'26321'
p196
tp197
a(S'168997'
p198
S'1350145'
p199
tp200
a(S'76989'
p201
S'65607'
p202
tp203
a(S'334743'
p204
g101
tp205
a(S'128581'
p206
S'448638'
p207
tp208
a(g204
S'165965'
p209
tp210
a(S'358947'
p211
S'39929'
p212
tp213
a(S'485051'
p214
S'1949595'
p215
tp216
a(g130
S'301451'
p217
tp218
a(g153
g152
tp219
a(g170
g169
tp220
a(S'359067'
p221
S'2910'
p222
tp223
a(g16
g38
tp224
a(S'411369'
p225
g153
tp226
a(S'173065'
p227
g62
tp228
a(S'1412122'
p229
S'57934'
p230
tp231
a(g191
g176
tp232
a(g74
g77
tp233
a(S'284071'
p234
g209
tp235
a(S'26724'
p236
S'12486'
p237
tp238
a(S'37434'
p239
S'115950'
p240
tp241
a(g169
S'972663'
p242
tp243
a(S'87751'
p244
S'260796'
p245
tp246
a(S'982803'
p247
S'295262'
p248
tp249
a(g120
g119
tp250
a(S'293819'
p251
S'26596'
p252
tp253
a(g147
g82
tp254
a(g227
g61
tp255
a(g101
S'309811'
p256
tp257
a(S'315165'
p258
S'1635'
p259
tp260
a(g211
g58
tp261
a(g234
g256
tp262
a(g24
S'47794'
p263
tp264
a(S'66019'
p265
S'228568'
p266
tp267
a(g128
g19
tp268
a(g33
g32
tp269
a(g82
g81
tp270
a(g114
S'955828'
p271
tp272
a(S'34012'
p273
g215
tp274
a(g28
g30
tp275
a(g245
g182
tp276
a(g189
S'1959759'
p277
tp278
a(S'106638'
p279
S'20405'
p280
tp281
a(S'1054215'
p282
S'63729'
p283
tp284
a(g59
g79
tp285
a(S'222907'
p286
S'1990551'
p287
tp288
a(g25
g263
tp289
a(g242
g170
tp290
a(g196
S'238898'
p291
tp292
a(S'1312933'
p293
S'763584'
p294
tp295
a(g85
g84
tp296
a(g85
g71
tp297
a(g256
g234
tp298
a(g136
S'1962294'
p299
tp300
a(g108
g107
tp301
a(g215
g214
tp302
a(g237
g182
tp303
a(S'194983'
p304
S'73473'
p305
tp306
a(S'295562'
p307
S'36559'
p308
tp309
a(g10
g9
tp310
a(g73
g167
tp311
a(g22
g21
tp312
a(g299
g136
tp313
a(S'205146'
p314
S'15342'
p315
tp316
a(S'268102'
p317
S'1967784'
p318
tp319
a(g176
S'60139'
p320
tp321
a(S'160582'
p322
S'293124'
p323
tp324
a(g156
g155
tp325
a(g13
g12
tp326
a(g111
S'345480'
p327
tp328
a(S'459195'
p329
g108
tp330
a(g161
g184
tp331
a(S'138270'
p332
g91
tp333
a(g201
S'204474'
p334
tp335
a(g181
g236
tp336
a(S'45430'
p337
S'1297561'
p338
tp339
a(g18
g128
tp340
a(g248
g247
tp341
a(g70
g84
tp342
a(g111
g110
tp343
a(S'562784'
p344
S'90089'
p345
tp346
a(g110
g327
tp347
a(S'1017951'
p348
g291
tp349
a(g182
g237
tp350
a(g256
g101
tp351
a(g47
g46
tp352
a(g70
g96
tp353
a(g320
g177
tp354
a(g283
g282
tp355
a(g245
g244
tp356
a(S'92491'
p357
g104
tp358
a(g165
g139
tp359
a(g58
g211
tp360
a(g64
S'341627'
p361
tp362
a(g137
S'1442163'
p363
tp364
a(g155
S'35350'
p365
tp366
a(g58
g98
tp367
a(g167
g73
tp368
a(g16
g15
tp369
a(g193
g40
tp370
a(g259
g258
tp371
a(g305
g304
tp372
a(g144
g143
tp373
a(S'653663'
p374
g108
tp375
a(g50
g49
tp376
a(g67
S'297989'
p377
tp378
a(g71
g70
tp379
a(g104
g150
tp380
a(g137
g299
tp381
a(g136
g363
tp382
a(g179
g143
tp383
a(g59
g211
tp384
a(g153
g225
tp385
a(g143
S'145703'
p386
tp387
a(g182
g245
tp388
a(S'1980773'
p389
g163
tp390
a(g101
g100
tp391
a(S'179722'
p392
g277
tp393
a(S'236293'
p394
S'9036'
p395
tp396
a(g38
g15
tp397
a(S'806587'
p398
S'33368'
p399
tp400
a(g263
g24
tp401
a(g35
g165
tp402
a(g230
g229
tp403
a(g182
g181
tp404
a(g365
g155
tp405
a(g251
S'13832'
p406
tp407
a(g131
g158
tp408
a(g73
g77
tp409
a(S'26934'
p410
g113
tp411
a(S'106039'
p412
g55
tp413
a(g185
g184
tp414
a(S'86406'
p415
g173
tp416
a(g77
g74
tp417
a(g207
g206
tp418
a(g318
g317
tp419
a(g211
g59
tp420
a(g236
S'574963'
p421
tp422
a(g395
g394
tp423
a(g399
g398
tp424
a(g74
g52
tp425
a(g406
g251
tp426
a(g131
g130
tp427
a(g70
S'31990'
p428
tp429
a(g189
g392
tp430
a(g214
g273
tp431
a(g345
S'1238843'
p432
tp433
a(g187
g133
tp434
a(g329
g107
tp435
a(g137
g136
tp436
a(g167
g77
tp437
a(g273
g214
tp438
a(g53
g167
tp439
a(g108
S'300162'
p440
tp441
a(g56
S'706'
p442
tp443
a(g377
g67
tp444
a(S'730191'
p445
S'3774'
p446
tp447
a(g53
g52
tp448
a(S'8650'
p449
S'163665'
p450
tp451
a(g56
g55
tp452
a(g36
g35
tp453
a(S'41773'
p454
g314
tp455
a(g55
g412
tp456
a(g108
g374
tp457
a(g144
g179
tp458
a(g74
g167
tp459
a(S'278573'
p460
S'1283058'
p461
tp462
a(S'95194'
p463
S'123925'
p464
tp465
a(g237
g236
tp466
a(g19
g392
tp467
a(S'155745'
p468
S'31674'
p469
tp470
a(g36
g139
tp471
a(g59
g58
tp472
a(S'1974848'
p473
S'156467'
p474
tp475
a(g320
g191
tp476
a(g187
g134
tp477
a(g4
g116
tp478
a(g474
g473
tp479
a(g3
g116
tp480
a(g62
g227
tp481
a(g170
g242
tp482
a(g191
g320
tp483
a(g161
g185
tp484
a(g73
g52
tp485
a(g315
g314
tp486
a(g446
g445
tp487
a(g454
g315
tp488
a(S'24714'
p489
S'78457'
p490
tp491
a(g163
g122
tp492
a(g101
g209
tp493
a(g185
g161
tp494
a(g84
g70
tp495
a(S'32131'
p496
g394
tp497
a(g314
g454
tp498
a(g323
g322
tp499
a(S'354786'
p500
S'75439'
p501
tp502
a(g15
g38
tp503
a(S'120059'
p504
S'1436199'
p505
tp506
a(g147
g81
tp507
a(g505
g504
tp508
a(g177
g176
tp509
a(g7
g6
tp510
a(g150
g104
tp511
a(S'37273'
p512
g47
tp513
a(g199
g198
tp514
a(g277
g189
tp515
a(g28
g27
tp516
a(g116
g4
tp517
a(S'261307'
p518
g221
tp519
a(g117
g116
tp520
a(g222
g221
tp521
a(g345
g344
tp522
a(g428
g70
tp523
a(g98
g58
tp524
a(g211
g98
tp525
a(g77
g53
tp526
a(g61
g227
tp527
a(g389
g123
tp528
a(g334
g201
tp529
a(g179
g144
tp530
a(g98
g59
tp531
a(g291
g348
tp532
a(g173
g415
tp533
a(S'70176'
p534
S'126289'
p535
tp536
a(g209
g256
tp537
a(g496
g395
tp538
a(g357
g105
tp539
a(g399
S'114716'
p540
tp541
a(g74
g73
tp542
a(g280
g279
tp543
a(g113
g410
tp544
a(g204
g234
tp545
a(g236
g181
tp546
a(g252
g251
tp547
a(g79
g58
tp548
a(g363
g136
tp549
a(g123
g389
tp550
a(g209
g234
tp551
a(g252
g406
tp552
a(g98
g211
tp553
a(g108
g329
tp554
a(g84
g96
tp555
a(g44
g43
tp556
a(S'20590'
p557
g279
tp558
a(g71
g85
tp559
a(g363
g299
tp560
a(g134
g133
tp561
a(g91
g90
tp562
a(g139
g36
tp563
a(g329
g440
tp564
a(g163
g389
tp565
a(g167
g52
tp566
a(S'1134'
p567
g4
tp568
a(g4
g3
tp569
a(g85
g96
tp570
a(g85
g70
tp571
a(g266
g265
tp572
a(g299
g363
tp573
a(g133
g187
tp574
a(g30
g28
tp575
a(g490
g489
tp576
a(g79
g98
tp577
a(g52
g167
tp578
a(g96
g84
tp579
a(g315
g454
tp580
a(g291
g196
tp581
a(g79
g59
tp582
a(g84
g71
tp583
a(g52
g74
tp584
a(g386
g143
tp585
a(g215
g273
tp586
a(g392
g128
tp587
a(g68
g67
tp588
a(g104
g357
tp589
a(g19
g128
tp590
a(g432
g345
tp591
a(S'33841'
p592
S'1980123'
p593
tp594
a(g189
g128
tp595
a(g593
g592
tp596
a(g96
g71
tp597
a(g82
g147
tp598
a(g308
g307
tp599
a(g461
g460
tp600
a(g150
g105
tp601
a(g361
g64
tp602
a(g77
g73
tp603
a(g212
g211
tp604
a(g363
g137
tp605
a(g395
g496
tp606
a(g41
g193
tp607
a(g47
g512
tp608
a(g442
g56
tp609
a(g567
g3
tp610
a(g209
g101
tp611
a(g65
g64
tp612
a(g30
g27
tp613
a(g193
g41
tp614
a(g394
g496
tp615
a(g70
g85
tp616
a(g242
g169
tp617
a(g105
g104
tp618
a(g46
g512
tp619
a(g177
g320
tp620
a(g91
g332
tp621
a(g184
g161
tp622
a(g114
g113
tp623
a(g271
g114
tp624
a(g469
g468
tp625
a(g464
g463
tp626
a(g287
g286
tp627
a(g327
g110
tp628
a(g277
g392
tp629
a(g299
g137
tp630
a(g105
g357
tp631
a(g94
g93
tp632
a(g122
g389
tp633
a(g389
g122
tp634
a(g392
g189
tp635
a(g450
g449
tp636
a(g440
g108
tp637
a(S'174694'
p638
g206
tp639
a(g71
g84
tp640
a(g3
g567
tp641
a(g53
g74
tp642
a(g256
g209
tp643
a(g4
g567
tp644
a(g19
g18
tp645
a(g263
g25
tp646
a(g338
g337
tp647
a(g165
g36
tp648
a(g126
g125
tp649
a(g206
g638
tp650
a(g273
S'1946001'
p651
tp652
a(g221
g518
tp653
a(g440
g329
tp654
a(g518
g222
tp655
a(S'1337641'
p656
g504
tp657
a(g189
g19
tp658
a(g71
g96
tp659
a(g209
g204
tp660
a(g77
g167
tp661
a(g327
g111
tp662
a(g161
g160
tp663
a(g535
g534
tp664
a(g392
g19
tp665
a(g540
g399
tp666
a(g222
g518
tp667
a(g52
g77
tp668
a(g165
g35
tp669
a(g202
g201
tp670
a(g504
g656
tp671
a(g320
g176
tp672
a(g196
g195
tp673
a(g98
g79
tp674
a(g651
g273
tp675
a(g421
g236
tp676
a(g334
g202
tp677
a(g139
g165
tp678
a(g167
g74
tp679
a(g202
g334
tp680
a(g41
g40
tp681
a(g217
g130
tp682
a(g294
g293
tp683
a(g123
g122
tp684
a(g107
g329
tp685
a(g128
g392
tp686
a(g128
g189
tp687
a(g501
g500
tp688
a(g406
g252
tp689
a(g35
g139
tp690
a(g240
g239
tp691
a(g174
g173
tp692
a(g279
g557
tp693
a(g77
g52
tp694
a(g512
g46
tp695
a(g234
g204
tp696
a(g101
g204
tp697
atRp698
.